

Microchip MPLAB XC8 Assembler V2.31 build 20201012212115 
                                                                                               Mon Jul 10 19:22:05 2023

Microchip MPLAB XC8 C Compiler v2.31 (Free license) build 20201012212115 Og1 
     1                           	processor	16F1829
     2                           	pagewidth 120
     3                           	opt	flic
     4                           	psect	stringtext1,global,class=STRCODE,delta=2,noexec
     5                           	psect	nvBANK1,global,class=BANK1,space=1,delta=1,noexec
     6                           	psect	cinit,global,class=CODE,merge=1,delta=2
     7                           	psect	bssBANK0,global,class=BANK0,space=1,delta=1,noexec
     8                           	psect	cstackCOMMON,global,class=COMMON,space=1,delta=1,noexec
     9                           	psect	cstackBANK0,global,class=BANK0,space=1,delta=1,noexec
    10                           	psect	maintext,global,class=CODE,merge=1,split=1,delta=2
    11                           	psect	text1,local,class=CODE,merge=1,delta=2
    12                           	psect	text2,local,class=CODE,merge=1,delta=2
    13                           	psect	text3,local,class=CODE,merge=1,delta=2
    14                           	psect	text4,local,class=CODE,merge=1,delta=2,group=1
    15                           	psect	text5,local,class=CODE,merge=1,delta=2,group=1
    16                           	psect	text6,local,class=CODE,merge=1,inline,delta=2
    17                           	psect	text7,local,class=CODE,merge=1,delta=2,group=1
    18                           	psect	text8,local,class=CODE,merge=1,delta=2,group=1
    19                           	psect	text9,local,class=CODE,merge=1,delta=2,group=1
    20                           	psect	text10,local,class=CODE,merge=1,delta=2,group=1
    21                           	psect	text11,local,class=CODE,merge=1,delta=2,group=1
    22                           	psect	text12,local,class=CODE,merge=1,delta=2,group=1
    23                           	psect	text13,local,class=CODE,merge=1,delta=2,group=1
    24                           	psect	text14,local,class=CODE,merge=1,inline,delta=2
    25                           	psect	text15,local,class=CODE,merge=1,delta=2,group=2
    26                           	psect	text16,local,class=CODE,merge=1,inline,delta=2
    27                           	psect	text17,local,class=CODE,merge=1,delta=2
    28                           	psect	text18,local,class=CODE,merge=1,delta=2
    29                           	psect	text19,local,class=CODE,merge=1,delta=2
    30                           	psect	text20,local,class=CODE,merge=1,delta=2
    31                           	psect	text21,local,class=CODE,merge=1,delta=2
    32                           	psect	text22,local,class=CODE,merge=1,delta=2
    33                           	psect	text23,local,class=CODE,merge=1,delta=2
    34                           	psect	text24,local,class=CODE,merge=1,delta=2
    35                           	psect	text25,local,class=CODE,merge=1,delta=2
    36                           	psect	text26,local,class=CODE,merge=1,delta=2
    37                           	psect	text27,local,class=CODE,merge=1,delta=2
    38                           	psect	idloc,global,abs,ovrld,class=IDLOC,space=5,delta=2,noexec
    39                           	psect	config,global,abs,ovrld,class=CONFIG,space=4,delta=2,noexec
    40                           	dabs	1,0x7E,2
    41  0000                     
    42                           ; Version 2.40
    43                           ; Generated 17/11/2021 GMT
    44                           ; 
    45                           ; Copyright © 2021, Microchip Technology Inc. and its subsidiaries ("Microchip")
    46                           ; All rights reserved.
    47                           ; 
    48                           ; This software is developed by Microchip Technology Inc. and its subsidiaries ("Microch
      +                          ip").
    49                           ; 
    50                           ; Redistribution and use in source and binary forms, with or without modification, are
    51                           ; permitted provided that the following conditions are met:
    52                           ; 
    53                           ;     1. Redistributions of source code must retain the above copyright notice, this lis
      +                          t of
    54                           ;        conditions and the following disclaimer.
    55                           ; 
    56                           ;     2. Redistributions in binary form must reproduce the above copyright notice, this 
      +                          list
    57                           ;        of conditions and the following disclaimer in the documentation and/or other
    58                           ;        materials provided with the distribution. Publication is not required when
    59                           ;        this file is used in an embedded application.
    60                           ; 
    61                           ;     3. Microchip's name may not be used to endorse or promote products derived from th
      +                          is
    62                           ;        software without specific prior written permission.
    63                           ; 
    64                           ; THIS SOFTWARE IS PROVIDED BY MICROCHIP "AS IS" AND ANY EXPRESS OR IMPLIED WARRANTIES,
    65                           ; INCLUDING, BUT NOT LIMITED TO, THE IMPLIED WARRANTIES OF MERCHANTABILITY AND FITNESS F
      +                          OR
    66                           ; PURPOSE ARE DISCLAIMED.  IN NO EVENT SHALL MICROCHIP BE LIABLE FOR ANY DIRECT, INDIREC
      +                          T,
    67                           ; INCIDENTAL, SPECIAL, EXEMPLARY, OR CONSEQUENTIAL DAMAGES (INCLUDING BUT NOT LIMITED TO
    68                           ; PROCUREMENT OF SUBSTITUTE GOODS OR SERVICES; LOSS OF USE, DATA OR PROFITS; OR BUSINESS
    69                           ; INTERRUPTION) HOWSOEVER CAUSED AND ON ANY THEORY OF LIABILITY, WHETHER IN CONTRACT, ST
      +                          RICT
    70                           ; LIABILITY, OR TORT (INCLUDING NEGLIGENCE OR OTHERWISE) ARISING IN ANY WAY OUT OF THE U
      +                          SE OF
    71                           ; THIS SOFTWARE, EVEN IF ADVISED OF THE POSSIBILITY OF SUCH DAMAGE.
    72                           ; 
    73                           ; 
    74                           ; Code-generator required, PIC16F1829 Definitions
    75                           ; 
    76                           ; SFR Addresses
    77  0000                     	;# 
    78  0001                     	;# 
    79  0002                     	;# 
    80  0003                     	;# 
    81  0004                     	;# 
    82  0005                     	;# 
    83  0006                     	;# 
    84  0007                     	;# 
    85  0008                     	;# 
    86  0009                     	;# 
    87  000A                     	;# 
    88  000B                     	;# 
    89  000C                     	;# 
    90  000D                     	;# 
    91  000E                     	;# 
    92  0011                     	;# 
    93  0012                     	;# 
    94  0013                     	;# 
    95  0014                     	;# 
    96  0015                     	;# 
    97  0016                     	;# 
    98  0016                     	;# 
    99  0017                     	;# 
   100  0018                     	;# 
   101  0019                     	;# 
   102  001A                     	;# 
   103  001B                     	;# 
   104  001C                     	;# 
   105  001E                     	;# 
   106  001F                     	;# 
   107  008C                     	;# 
   108  008D                     	;# 
   109  008E                     	;# 
   110  0091                     	;# 
   111  0092                     	;# 
   112  0093                     	;# 
   113  0094                     	;# 
   114  0095                     	;# 
   115  0096                     	;# 
   116  0097                     	;# 
   117  0098                     	;# 
   118  0099                     	;# 
   119  009A                     	;# 
   120  009B                     	;# 
   121  009B                     	;# 
   122  009C                     	;# 
   123  009D                     	;# 
   124  009E                     	;# 
   125  010C                     	;# 
   126  010D                     	;# 
   127  010E                     	;# 
   128  0111                     	;# 
   129  0112                     	;# 
   130  0113                     	;# 
   131  0114                     	;# 
   132  0115                     	;# 
   133  0116                     	;# 
   134  0117                     	;# 
   135  0118                     	;# 
   136  0119                     	;# 
   137  011A                     	;# 
   138  011B                     	;# 
   139  011D                     	;# 
   140  011E                     	;# 
   141  018C                     	;# 
   142  018D                     	;# 
   143  018E                     	;# 
   144  0191                     	;# 
   145  0191                     	;# 
   146  0192                     	;# 
   147  0193                     	;# 
   148  0193                     	;# 
   149  0193                     	;# 
   150  0194                     	;# 
   151  0195                     	;# 
   152  0196                     	;# 
   153  0199                     	;# 
   154  019A                     	;# 
   155  019B                     	;# 
   156  019B                     	;# 
   157  019C                     	;# 
   158  019D                     	;# 
   159  019E                     	;# 
   160  019F                     	;# 
   161  020C                     	;# 
   162  020D                     	;# 
   163  020E                     	;# 
   164  0211                     	;# 
   165  0211                     	;# 
   166  0212                     	;# 
   167  0212                     	;# 
   168  0213                     	;# 
   169  0213                     	;# 
   170  0214                     	;# 
   171  0214                     	;# 
   172  0215                     	;# 
   173  0215                     	;# 
   174  0215                     	;# 
   175  0216                     	;# 
   176  0216                     	;# 
   177  0217                     	;# 
   178  0217                     	;# 
   179  0219                     	;# 
   180  021A                     	;# 
   181  021B                     	;# 
   182  021C                     	;# 
   183  021D                     	;# 
   184  021E                     	;# 
   185  021F                     	;# 
   186  0291                     	;# 
   187  0291                     	;# 
   188  0292                     	;# 
   189  0293                     	;# 
   190  0294                     	;# 
   191  0295                     	;# 
   192  0295                     	;# 
   193  0296                     	;# 
   194  0298                     	;# 
   195  0298                     	;# 
   196  0299                     	;# 
   197  029A                     	;# 
   198  029B                     	;# 
   199  029C                     	;# 
   200  029D                     	;# 
   201  029E                     	;# 
   202  0311                     	;# 
   203  0311                     	;# 
   204  0312                     	;# 
   205  0313                     	;# 
   206  0318                     	;# 
   207  0318                     	;# 
   208  0319                     	;# 
   209  031A                     	;# 
   210  038C                     	;# 
   211  038D                     	;# 
   212  038E                     	;# 
   213  0391                     	;# 
   214  0392                     	;# 
   215  0393                     	;# 
   216  0394                     	;# 
   217  0395                     	;# 
   218  0396                     	;# 
   219  039A                     	;# 
   220  039C                     	;# 
   221  039D                     	;# 
   222  039E                     	;# 
   223  039F                     	;# 
   224  0415                     	;# 
   225  0416                     	;# 
   226  0417                     	;# 
   227  041C                     	;# 
   228  041D                     	;# 
   229  041E                     	;# 
   230  0FE4                     	;# 
   231  0FE5                     	;# 
   232  0FE6                     	;# 
   233  0FE7                     	;# 
   234  0FE8                     	;# 
   235  0FE9                     	;# 
   236  0FEA                     	;# 
   237  0FEB                     	;# 
   238  0FED                     	;# 
   239  0FEE                     	;# 
   240  0FEF                     	;# 
   241  0000                     	;# 
   242  0001                     	;# 
   243  0002                     	;# 
   244  0003                     	;# 
   245  0004                     	;# 
   246  0005                     	;# 
   247  0006                     	;# 
   248  0007                     	;# 
   249  0008                     	;# 
   250  0009                     	;# 
   251  000A                     	;# 
   252  000B                     	;# 
   253  000C                     	;# 
   254  000D                     	;# 
   255  000E                     	;# 
   256  0011                     	;# 
   257  0012                     	;# 
   258  0013                     	;# 
   259  0014                     	;# 
   260  0015                     	;# 
   261  0016                     	;# 
   262  0016                     	;# 
   263  0017                     	;# 
   264  0018                     	;# 
   265  0019                     	;# 
   266  001A                     	;# 
   267  001B                     	;# 
   268  001C                     	;# 
   269  001E                     	;# 
   270  001F                     	;# 
   271  008C                     	;# 
   272  008D                     	;# 
   273  008E                     	;# 
   274  0091                     	;# 
   275  0092                     	;# 
   276  0093                     	;# 
   277  0094                     	;# 
   278  0095                     	;# 
   279  0096                     	;# 
   280  0097                     	;# 
   281  0098                     	;# 
   282  0099                     	;# 
   283  009A                     	;# 
   284  009B                     	;# 
   285  009B                     	;# 
   286  009C                     	;# 
   287  009D                     	;# 
   288  009E                     	;# 
   289  010C                     	;# 
   290  010D                     	;# 
   291  010E                     	;# 
   292  0111                     	;# 
   293  0112                     	;# 
   294  0113                     	;# 
   295  0114                     	;# 
   296  0115                     	;# 
   297  0116                     	;# 
   298  0117                     	;# 
   299  0118                     	;# 
   300  0119                     	;# 
   301  011A                     	;# 
   302  011B                     	;# 
   303  011D                     	;# 
   304  011E                     	;# 
   305  018C                     	;# 
   306  018D                     	;# 
   307  018E                     	;# 
   308  0191                     	;# 
   309  0191                     	;# 
   310  0192                     	;# 
   311  0193                     	;# 
   312  0193                     	;# 
   313  0193                     	;# 
   314  0194                     	;# 
   315  0195                     	;# 
   316  0196                     	;# 
   317  0199                     	;# 
   318  019A                     	;# 
   319  019B                     	;# 
   320  019B                     	;# 
   321  019C                     	;# 
   322  019D                     	;# 
   323  019E                     	;# 
   324  019F                     	;# 
   325  020C                     	;# 
   326  020D                     	;# 
   327  020E                     	;# 
   328  0211                     	;# 
   329  0211                     	;# 
   330  0212                     	;# 
   331  0212                     	;# 
   332  0213                     	;# 
   333  0213                     	;# 
   334  0214                     	;# 
   335  0214                     	;# 
   336  0215                     	;# 
   337  0215                     	;# 
   338  0215                     	;# 
   339  0216                     	;# 
   340  0216                     	;# 
   341  0217                     	;# 
   342  0217                     	;# 
   343  0219                     	;# 
   344  021A                     	;# 
   345  021B                     	;# 
   346  021C                     	;# 
   347  021D                     	;# 
   348  021E                     	;# 
   349  021F                     	;# 
   350  0291                     	;# 
   351  0291                     	;# 
   352  0292                     	;# 
   353  0293                     	;# 
   354  0294                     	;# 
   355  0295                     	;# 
   356  0295                     	;# 
   357  0296                     	;# 
   358  0298                     	;# 
   359  0298                     	;# 
   360  0299                     	;# 
   361  029A                     	;# 
   362  029B                     	;# 
   363  029C                     	;# 
   364  029D                     	;# 
   365  029E                     	;# 
   366  0311                     	;# 
   367  0311                     	;# 
   368  0312                     	;# 
   369  0313                     	;# 
   370  0318                     	;# 
   371  0318                     	;# 
   372  0319                     	;# 
   373  031A                     	;# 
   374  038C                     	;# 
   375  038D                     	;# 
   376  038E                     	;# 
   377  0391                     	;# 
   378  0392                     	;# 
   379  0393                     	;# 
   380  0394                     	;# 
   381  0395                     	;# 
   382  0396                     	;# 
   383  039A                     	;# 
   384  039C                     	;# 
   385  039D                     	;# 
   386  039E                     	;# 
   387  039F                     	;# 
   388  0415                     	;# 
   389  0416                     	;# 
   390  0417                     	;# 
   391  041C                     	;# 
   392  041D                     	;# 
   393  041E                     	;# 
   394  0FE4                     	;# 
   395  0FE5                     	;# 
   396  0FE6                     	;# 
   397  0FE7                     	;# 
   398  0FE8                     	;# 
   399  0FE9                     	;# 
   400  0FEA                     	;# 
   401  0FEB                     	;# 
   402  0FED                     	;# 
   403  0FEE                     	;# 
   404  0FEF                     	;# 
   405  0000                     	;# 
   406  0001                     	;# 
   407  0002                     	;# 
   408  0003                     	;# 
   409  0004                     	;# 
   410  0005                     	;# 
   411  0006                     	;# 
   412  0007                     	;# 
   413  0008                     	;# 
   414  0009                     	;# 
   415  000A                     	;# 
   416  000B                     	;# 
   417  000C                     	;# 
   418  000D                     	;# 
   419  000E                     	;# 
   420  0011                     	;# 
   421  0012                     	;# 
   422  0013                     	;# 
   423  0014                     	;# 
   424  0015                     	;# 
   425  0016                     	;# 
   426  0016                     	;# 
   427  0017                     	;# 
   428  0018                     	;# 
   429  0019                     	;# 
   430  001A                     	;# 
   431  001B                     	;# 
   432  001C                     	;# 
   433  001E                     	;# 
   434  001F                     	;# 
   435  008C                     	;# 
   436  008D                     	;# 
   437  008E                     	;# 
   438  0091                     	;# 
   439  0092                     	;# 
   440  0093                     	;# 
   441  0094                     	;# 
   442  0095                     	;# 
   443  0096                     	;# 
   444  0097                     	;# 
   445  0098                     	;# 
   446  0099                     	;# 
   447  009A                     	;# 
   448  009B                     	;# 
   449  009B                     	;# 
   450  009C                     	;# 
   451  009D                     	;# 
   452  009E                     	;# 
   453  010C                     	;# 
   454  010D                     	;# 
   455  010E                     	;# 
   456  0111                     	;# 
   457  0112                     	;# 
   458  0113                     	;# 
   459  0114                     	;# 
   460  0115                     	;# 
   461  0116                     	;# 
   462  0117                     	;# 
   463  0118                     	;# 
   464  0119                     	;# 
   465  011A                     	;# 
   466  011B                     	;# 
   467  011D                     	;# 
   468  011E                     	;# 
   469  018C                     	;# 
   470  018D                     	;# 
   471  018E                     	;# 
   472  0191                     	;# 
   473  0191                     	;# 
   474  0192                     	;# 
   475  0193                     	;# 
   476  0193                     	;# 
   477  0193                     	;# 
   478  0194                     	;# 
   479  0195                     	;# 
   480  0196                     	;# 
   481  0199                     	;# 
   482  019A                     	;# 
   483  019B                     	;# 
   484  019B                     	;# 
   485  019C                     	;# 
   486  019D                     	;# 
   487  019E                     	;# 
   488  019F                     	;# 
   489  020C                     	;# 
   490  020D                     	;# 
   491  020E                     	;# 
   492  0211                     	;# 
   493  0211                     	;# 
   494  0212                     	;# 
   495  0212                     	;# 
   496  0213                     	;# 
   497  0213                     	;# 
   498  0214                     	;# 
   499  0214                     	;# 
   500  0215                     	;# 
   501  0215                     	;# 
   502  0215                     	;# 
   503  0216                     	;# 
   504  0216                     	;# 
   505  0217                     	;# 
   506  0217                     	;# 
   507  0219                     	;# 
   508  021A                     	;# 
   509  021B                     	;# 
   510  021C                     	;# 
   511  021D                     	;# 
   512  021E                     	;# 
   513  021F                     	;# 
   514  0291                     	;# 
   515  0291                     	;# 
   516  0292                     	;# 
   517  0293                     	;# 
   518  0294                     	;# 
   519  0295                     	;# 
   520  0295                     	;# 
   521  0296                     	;# 
   522  0298                     	;# 
   523  0298                     	;# 
   524  0299                     	;# 
   525  029A                     	;# 
   526  029B                     	;# 
   527  029C                     	;# 
   528  029D                     	;# 
   529  029E                     	;# 
   530  0311                     	;# 
   531  0311                     	;# 
   532  0312                     	;# 
   533  0313                     	;# 
   534  0318                     	;# 
   535  0318                     	;# 
   536  0319                     	;# 
   537  031A                     	;# 
   538  038C                     	;# 
   539  038D                     	;# 
   540  038E                     	;# 
   541  0391                     	;# 
   542  0392                     	;# 
   543  0393                     	;# 
   544  0394                     	;# 
   545  0395                     	;# 
   546  0396                     	;# 
   547  039A                     	;# 
   548  039C                     	;# 
   549  039D                     	;# 
   550  039E                     	;# 
   551  039F                     	;# 
   552  0415                     	;# 
   553  0416                     	;# 
   554  0417                     	;# 
   555  041C                     	;# 
   556  041D                     	;# 
   557  041E                     	;# 
   558  0FE4                     	;# 
   559  0FE5                     	;# 
   560  0FE6                     	;# 
   561  0FE7                     	;# 
   562  0FE8                     	;# 
   563  0FE9                     	;# 
   564  0FEA                     	;# 
   565  0FEB                     	;# 
   566  0FED                     	;# 
   567  0FEE                     	;# 
   568  0FEF                     	;# 
   569  0000                     	;# 
   570  0001                     	;# 
   571  0002                     	;# 
   572  0003                     	;# 
   573  0004                     	;# 
   574  0005                     	;# 
   575  0006                     	;# 
   576  0007                     	;# 
   577  0008                     	;# 
   578  0009                     	;# 
   579  000A                     	;# 
   580  000B                     	;# 
   581  000C                     	;# 
   582  000D                     	;# 
   583  000E                     	;# 
   584  0011                     	;# 
   585  0012                     	;# 
   586  0013                     	;# 
   587  0014                     	;# 
   588  0015                     	;# 
   589  0016                     	;# 
   590  0016                     	;# 
   591  0017                     	;# 
   592  0018                     	;# 
   593  0019                     	;# 
   594  001A                     	;# 
   595  001B                     	;# 
   596  001C                     	;# 
   597  001E                     	;# 
   598  001F                     	;# 
   599  008C                     	;# 
   600  008D                     	;# 
   601  008E                     	;# 
   602  0091                     	;# 
   603  0092                     	;# 
   604  0093                     	;# 
   605  0094                     	;# 
   606  0095                     	;# 
   607  0096                     	;# 
   608  0097                     	;# 
   609  0098                     	;# 
   610  0099                     	;# 
   611  009A                     	;# 
   612  009B                     	;# 
   613  009B                     	;# 
   614  009C                     	;# 
   615  009D                     	;# 
   616  009E                     	;# 
   617  010C                     	;# 
   618  010D                     	;# 
   619  010E                     	;# 
   620  0111                     	;# 
   621  0112                     	;# 
   622  0113                     	;# 
   623  0114                     	;# 
   624  0115                     	;# 
   625  0116                     	;# 
   626  0117                     	;# 
   627  0118                     	;# 
   628  0119                     	;# 
   629  011A                     	;# 
   630  011B                     	;# 
   631  011D                     	;# 
   632  011E                     	;# 
   633  018C                     	;# 
   634  018D                     	;# 
   635  018E                     	;# 
   636  0191                     	;# 
   637  0191                     	;# 
   638  0192                     	;# 
   639  0193                     	;# 
   640  0193                     	;# 
   641  0193                     	;# 
   642  0194                     	;# 
   643  0195                     	;# 
   644  0196                     	;# 
   645  0199                     	;# 
   646  019A                     	;# 
   647  019B                     	;# 
   648  019B                     	;# 
   649  019C                     	;# 
   650  019D                     	;# 
   651  019E                     	;# 
   652  019F                     	;# 
   653  020C                     	;# 
   654  020D                     	;# 
   655  020E                     	;# 
   656  0211                     	;# 
   657  0211                     	;# 
   658  0212                     	;# 
   659  0212                     	;# 
   660  0213                     	;# 
   661  0213                     	;# 
   662  0214                     	;# 
   663  0214                     	;# 
   664  0215                     	;# 
   665  0215                     	;# 
   666  0215                     	;# 
   667  0216                     	;# 
   668  0216                     	;# 
   669  0217                     	;# 
   670  0217                     	;# 
   671  0219                     	;# 
   672  021A                     	;# 
   673  021B                     	;# 
   674  021C                     	;# 
   675  021D                     	;# 
   676  021E                     	;# 
   677  021F                     	;# 
   678  0291                     	;# 
   679  0291                     	;# 
   680  0292                     	;# 
   681  0293                     	;# 
   682  0294                     	;# 
   683  0295                     	;# 
   684  0295                     	;# 
   685  0296                     	;# 
   686  0298                     	;# 
   687  0298                     	;# 
   688  0299                     	;# 
   689  029A                     	;# 
   690  029B                     	;# 
   691  029C                     	;# 
   692  029D                     	;# 
   693  029E                     	;# 
   694  0311                     	;# 
   695  0311                     	;# 
   696  0312                     	;# 
   697  0313                     	;# 
   698  0318                     	;# 
   699  0318                     	;# 
   700  0319                     	;# 
   701  031A                     	;# 
   702  038C                     	;# 
   703  038D                     	;# 
   704  038E                     	;# 
   705  0391                     	;# 
   706  0392                     	;# 
   707  0393                     	;# 
   708  0394                     	;# 
   709  0395                     	;# 
   710  0396                     	;# 
   711  039A                     	;# 
   712  039C                     	;# 
   713  039D                     	;# 
   714  039E                     	;# 
   715  039F                     	;# 
   716  0415                     	;# 
   717  0416                     	;# 
   718  0417                     	;# 
   719  041C                     	;# 
   720  041D                     	;# 
   721  041E                     	;# 
   722  0FE4                     	;# 
   723  0FE5                     	;# 
   724  0FE6                     	;# 
   725  0FE7                     	;# 
   726  0FE8                     	;# 
   727  0FE9                     	;# 
   728  0FEA                     	;# 
   729  0FEB                     	;# 
   730  0FED                     	;# 
   731  0FEE                     	;# 
   732  0FEF                     	;# 
   733  0000                     	;# 
   734  0001                     	;# 
   735  0002                     	;# 
   736  0003                     	;# 
   737  0004                     	;# 
   738  0005                     	;# 
   739  0006                     	;# 
   740  0007                     	;# 
   741  0008                     	;# 
   742  0009                     	;# 
   743  000A                     	;# 
   744  000B                     	;# 
   745  000C                     	;# 
   746  000D                     	;# 
   747  000E                     	;# 
   748  0011                     	;# 
   749  0012                     	;# 
   750  0013                     	;# 
   751  0014                     	;# 
   752  0015                     	;# 
   753  0016                     	;# 
   754  0016                     	;# 
   755  0017                     	;# 
   756  0018                     	;# 
   757  0019                     	;# 
   758  001A                     	;# 
   759  001B                     	;# 
   760  001C                     	;# 
   761  001E                     	;# 
   762  001F                     	;# 
   763  008C                     	;# 
   764  008D                     	;# 
   765  008E                     	;# 
   766  0091                     	;# 
   767  0092                     	;# 
   768  0093                     	;# 
   769  0094                     	;# 
   770  0095                     	;# 
   771  0096                     	;# 
   772  0097                     	;# 
   773  0098                     	;# 
   774  0099                     	;# 
   775  009A                     	;# 
   776  009B                     	;# 
   777  009B                     	;# 
   778  009C                     	;# 
   779  009D                     	;# 
   780  009E                     	;# 
   781  010C                     	;# 
   782  010D                     	;# 
   783  010E                     	;# 
   784  0111                     	;# 
   785  0112                     	;# 
   786  0113                     	;# 
   787  0114                     	;# 
   788  0115                     	;# 
   789  0116                     	;# 
   790  0117                     	;# 
   791  0118                     	;# 
   792  0119                     	;# 
   793  011A                     	;# 
   794  011B                     	;# 
   795  011D                     	;# 
   796  011E                     	;# 
   797  018C                     	;# 
   798  018D                     	;# 
   799  018E                     	;# 
   800  0191                     	;# 
   801  0191                     	;# 
   802  0192                     	;# 
   803  0193                     	;# 
   804  0193                     	;# 
   805  0193                     	;# 
   806  0194                     	;# 
   807  0195                     	;# 
   808  0196                     	;# 
   809  0199                     	;# 
   810  019A                     	;# 
   811  019B                     	;# 
   812  019B                     	;# 
   813  019C                     	;# 
   814  019D                     	;# 
   815  019E                     	;# 
   816  019F                     	;# 
   817  020C                     	;# 
   818  020D                     	;# 
   819  020E                     	;# 
   820  0211                     	;# 
   821  0211                     	;# 
   822  0212                     	;# 
   823  0212                     	;# 
   824  0213                     	;# 
   825  0213                     	;# 
   826  0214                     	;# 
   827  0214                     	;# 
   828  0215                     	;# 
   829  0215                     	;# 
   830  0215                     	;# 
   831  0216                     	;# 
   832  0216                     	;# 
   833  0217                     	;# 
   834  0217                     	;# 
   835  0219                     	;# 
   836  021A                     	;# 
   837  021B                     	;# 
   838  021C                     	;# 
   839  021D                     	;# 
   840  021E                     	;# 
   841  021F                     	;# 
   842  0291                     	;# 
   843  0291                     	;# 
   844  0292                     	;# 
   845  0293                     	;# 
   846  0294                     	;# 
   847  0295                     	;# 
   848  0295                     	;# 
   849  0296                     	;# 
   850  0298                     	;# 
   851  0298                     	;# 
   852  0299                     	;# 
   853  029A                     	;# 
   854  029B                     	;# 
   855  029C                     	;# 
   856  029D                     	;# 
   857  029E                     	;# 
   858  0311                     	;# 
   859  0311                     	;# 
   860  0312                     	;# 
   861  0313                     	;# 
   862  0318                     	;# 
   863  0318                     	;# 
   864  0319                     	;# 
   865  031A                     	;# 
   866  038C                     	;# 
   867  038D                     	;# 
   868  038E                     	;# 
   869  0391                     	;# 
   870  0392                     	;# 
   871  0393                     	;# 
   872  0394                     	;# 
   873  0395                     	;# 
   874  0396                     	;# 
   875  039A                     	;# 
   876  039C                     	;# 
   877  039D                     	;# 
   878  039E                     	;# 
   879  039F                     	;# 
   880  0415                     	;# 
   881  0416                     	;# 
   882  0417                     	;# 
   883  041C                     	;# 
   884  041D                     	;# 
   885  041E                     	;# 
   886  0FE4                     	;# 
   887  0FE5                     	;# 
   888  0FE6                     	;# 
   889  0FE7                     	;# 
   890  0FE8                     	;# 
   891  0FE9                     	;# 
   892  0FEA                     	;# 
   893  0FEB                     	;# 
   894  0FED                     	;# 
   895  0FEE                     	;# 
   896  0FEF                     	;# 
   897  0000                     	;# 
   898  0001                     	;# 
   899  0002                     	;# 
   900  0003                     	;# 
   901  0004                     	;# 
   902  0005                     	;# 
   903  0006                     	;# 
   904  0007                     	;# 
   905  0008                     	;# 
   906  0009                     	;# 
   907  000A                     	;# 
   908  000B                     	;# 
   909  000C                     	;# 
   910  000D                     	;# 
   911  000E                     	;# 
   912  0011                     	;# 
   913  0012                     	;# 
   914  0013                     	;# 
   915  0014                     	;# 
   916  0015                     	;# 
   917  0016                     	;# 
   918  0016                     	;# 
   919  0017                     	;# 
   920  0018                     	;# 
   921  0019                     	;# 
   922  001A                     	;# 
   923  001B                     	;# 
   924  001C                     	;# 
   925  001E                     	;# 
   926  001F                     	;# 
   927  008C                     	;# 
   928  008D                     	;# 
   929  008E                     	;# 
   930  0091                     	;# 
   931  0092                     	;# 
   932  0093                     	;# 
   933  0094                     	;# 
   934  0095                     	;# 
   935  0096                     	;# 
   936  0097                     	;# 
   937  0098                     	;# 
   938  0099                     	;# 
   939  009A                     	;# 
   940  009B                     	;# 
   941  009B                     	;# 
   942  009C                     	;# 
   943  009D                     	;# 
   944  009E                     	;# 
   945  010C                     	;# 
   946  010D                     	;# 
   947  010E                     	;# 
   948  0111                     	;# 
   949  0112                     	;# 
   950  0113                     	;# 
   951  0114                     	;# 
   952  0115                     	;# 
   953  0116                     	;# 
   954  0117                     	;# 
   955  0118                     	;# 
   956  0119                     	;# 
   957  011A                     	;# 
   958  011B                     	;# 
   959  011D                     	;# 
   960  011E                     	;# 
   961  018C                     	;# 
   962  018D                     	;# 
   963  018E                     	;# 
   964  0191                     	;# 
   965  0191                     	;# 
   966  0192                     	;# 
   967  0193                     	;# 
   968  0193                     	;# 
   969  0193                     	;# 
   970  0194                     	;# 
   971  0195                     	;# 
   972  0196                     	;# 
   973  0199                     	;# 
   974  019A                     	;# 
   975  019B                     	;# 
   976  019B                     	;# 
   977  019C                     	;# 
   978  019D                     	;# 
   979  019E                     	;# 
   980  019F                     	;# 
   981  020C                     	;# 
   982  020D                     	;# 
   983  020E                     	;# 
   984  0211                     	;# 
   985  0211                     	;# 
   986  0212                     	;# 
   987  0212                     	;# 
   988  0213                     	;# 
   989  0213                     	;# 
   990  0214                     	;# 
   991  0214                     	;# 
   992  0215                     	;# 
   993  0215                     	;# 
   994  0215                     	;# 
   995  0216                     	;# 
   996  0216                     	;# 
   997  0217                     	;# 
   998  0217                     	;# 
   999  0219                     	;# 
  1000  021A                     	;# 
  1001  021B                     	;# 
  1002  021C                     	;# 
  1003  021D                     	;# 
  1004  021E                     	;# 
  1005  021F                     	;# 
  1006  0291                     	;# 
  1007  0291                     	;# 
  1008  0292                     	;# 
  1009  0293                     	;# 
  1010  0294                     	;# 
  1011  0295                     	;# 
  1012  0295                     	;# 
  1013  0296                     	;# 
  1014  0298                     	;# 
  1015  0298                     	;# 
  1016  0299                     	;# 
  1017  029A                     	;# 
  1018  029B                     	;# 
  1019  029C                     	;# 
  1020  029D                     	;# 
  1021  029E                     	;# 
  1022  0311                     	;# 
  1023  0311                     	;# 
  1024  0312                     	;# 
  1025  0313                     	;# 
  1026  0318                     	;# 
  1027  0318                     	;# 
  1028  0319                     	;# 
  1029  031A                     	;# 
  1030  038C                     	;# 
  1031  038D                     	;# 
  1032  038E                     	;# 
  1033  0391                     	;# 
  1034  0392                     	;# 
  1035  0393                     	;# 
  1036  0394                     	;# 
  1037  0395                     	;# 
  1038  0396                     	;# 
  1039  039A                     	;# 
  1040  039C                     	;# 
  1041  039D                     	;# 
  1042  039E                     	;# 
  1043  039F                     	;# 
  1044  0415                     	;# 
  1045  0416                     	;# 
  1046  0417                     	;# 
  1047  041C                     	;# 
  1048  041D                     	;# 
  1049  041E                     	;# 
  1050  0FE4                     	;# 
  1051  0FE5                     	;# 
  1052  0FE6                     	;# 
  1053  0FE7                     	;# 
  1054  0FE8                     	;# 
  1055  0FE9                     	;# 
  1056  0FEA                     	;# 
  1057  0FEB                     	;# 
  1058  0FED                     	;# 
  1059  0FEE                     	;# 
  1060  0FEF                     	;# 
  1061                           
  1062 ;; Function _EUSART_DefaultFramingErrorHandler is unused but had its address taken
  1063  0000                     
  1064 ;; Function _EUSART_DefaultOverrunErrorHandler is unused but had its address taken
  1065  0000                     
  1066 ;; Function _EUSART_DefaultErrorHandler is unused but had its address taken
  1067  0000                     
  1068                           	psect	stringtext1
  1069  1000                     __pstringtext1:
  1070  1000                     _spi1_configuration:
  1071  1000  3401               	retlw	1
  1072  1001  3440               	retlw	64
  1073  1002  3401               	retlw	1
  1074  1003  3400               	retlw	0
  1075  1004                     __end_of_spi1_configuration:
  1076                           
  1077                           	psect	nvBANK1
  1078  00A0                     __pnvBANK1:
  1079  00A0                     _EUSART_ErrorHandler:
  1080  00A0                     	ds	2
  1081  00A2                     _EUSART_OverrunErrorHandler:
  1082  00A2                     	ds	2
  1083  00A4                     _EUSART_FramingErrorHandler:
  1084  00A4                     	ds	2
  1085  0011                     _PIR1bits	set	17
  1086  008D                     _TRISBbits	set	141
  1087  0095                     _OPTION_REGbits	set	149
  1088  008E                     _TRISC	set	142
  1089  008D                     _TRISB	set	141
  1090  008C                     _TRISA	set	140
  1091  0097                     _WDTCON	set	151
  1092  0098                     _OSCTUNE	set	152
  1093  0099                     _OSCCON	set	153
  1094  010E                     _LATCbits	set	270
  1095  011E                     _APFCON1	set	286
  1096  011D                     _APFCON0	set	285
  1097  010E                     _LATC	set	270
  1098  010D                     _LATB	set	269
  1099  010C                     _LATA	set	268
  1100  0116                     _BORCON	set	278
  1101  019A                     _TXREG	set	410
  1102  0199                     _RCREG	set	409
  1103  019D                     _RCSTAbits	set	413
  1104  019E                     _TXSTAbits	set	414
  1105  019C                     _SPBRGH	set	412
  1106  019B                     _SPBRGL	set	411
  1107  019E                     _TXSTA	set	414
  1108  019D                     _RCSTA	set	413
  1109  019F                     _BAUDCON	set	415
  1110  018C                     _ANSELA	set	396
  1111  018D                     _ANSELB	set	397
  1112  018E                     _ANSELC	set	398
  1113  0211                     _SSP1BUF	set	529
  1114  0216                     _SSP1CON2	set	534
  1115  0215                     _SSP1CON1bits	set	533
  1116  0212                     _SSP1ADD	set	530
  1117  0215                     _SSP1CON1	set	533
  1118  0214                     _SSP1STAT	set	532
  1119  020E                     _WPUC	set	526
  1120  020C                     _WPUA	set	524
  1121  020D                     _WPUB	set	525
  1122                           
  1123                           	psect	cinit
  1124  07FB                     start_initialization:	
  1125                           ; #config settings
  1126                           
  1127  07FB                     __initialization:
  1128                           
  1129                           ; Clear objects allocated to BANK0
  1130  07FB  0020               	movlb	0	; select bank0
  1131  07FC  01EE               	clrf	__pbssBANK0& (0+127)
  1132  07FD                     end_of_initialization:	
  1133                           ;End of C runtime variable initialization code
  1134                           
  1135  07FD                     __end_of__initialization:
  1136  07FD  0020               	movlb	0
  1137  07FE  3180  280C         	ljmp	_main	;jump to C main() function
  1138                           
  1139                           	psect	bssBANK0
  1140  006E                     __pbssBANK0:
  1141  006E                     _eusartRxLastError:
  1142  006E                     	ds	1
  1143                           
  1144                           	psect	cstackCOMMON
  1145  0070                     __pcstackCOMMON:
  1146  0070                     ?_SPI1_Initialize:
  1147  0070                     ??_SPI1_Initialize:	
  1148                           ; 1 bytes @ 0x0
  1149                           
  1150  0070                     ?_PIN_MANAGER_Initialize:	
  1151                           ; 1 bytes @ 0x0
  1152                           
  1153  0070                     ??_PIN_MANAGER_Initialize:	
  1154                           ; 1 bytes @ 0x0
  1155                           
  1156  0070                     ?_OSCILLATOR_Initialize:	
  1157                           ; 1 bytes @ 0x0
  1158                           
  1159  0070                     ??_OSCILLATOR_Initialize:	
  1160                           ; 1 bytes @ 0x0
  1161                           
  1162  0070                     ?_WDT_Initialize:	
  1163                           ; 1 bytes @ 0x0
  1164                           
  1165  0070                     ??_WDT_Initialize:	
  1166                           ; 1 bytes @ 0x0
  1167                           
  1168  0070                     ?_EUSART_Initialize:	
  1169                           ; 1 bytes @ 0x0
  1170                           
  1171  0070                     ?_EUSART_SetFramingErrorHandler:	
  1172                           ; 1 bytes @ 0x0
  1173                           
  1174  0070                     ?_EUSART_SetOverrunErrorHandler:	
  1175                           ; 1 bytes @ 0x0
  1176                           
  1177  0070                     ?_EUSART_SetErrorHandler:	
  1178                           ; 1 bytes @ 0x0
  1179                           
  1180  0070                     ?_TX_Whole_String:	
  1181                           ; 1 bytes @ 0x0
  1182                           
  1183  0070                     ?_TX_Command:	
  1184                           ; 1 bytes @ 0x0
  1185                           
  1186  0070                     ?_SYSTEM_Initialize:	
  1187                           ; 1 bytes @ 0x0
  1188                           
  1189  0070                     ?_EUSART_is_tx_ready:	
  1190                           ; 1 bytes @ 0x0
  1191                           
  1192  0070                     ??_EUSART_is_tx_ready:	
  1193                           ; 1 bytes @ 0x0
  1194                           
  1195  0070                     ?_EUSART_Write:	
  1196                           ; 1 bytes @ 0x0
  1197                           
  1198  0070                     ??_EUSART_Write:	
  1199                           ; 1 bytes @ 0x0
  1200                           
  1201  0070                     ?_reverse:	
  1202                           ; 1 bytes @ 0x0
  1203                           
  1204  0070                     ?_main:	
  1205                           ; 1 bytes @ 0x0
  1206                           
  1207  0070                     ?___bmul:	
  1208                           ; 1 bytes @ 0x0
  1209                           
  1210  0070                     ?_strlen:	
  1211                           ; 1 bytes @ 0x0
  1212                           
  1213  0070                     ?__Umul8_16:	
  1214                           ; 2 bytes @ 0x0
  1215                           
  1216  0070                     ?___awdiv:	
  1217                           ; 2 bytes @ 0x0
  1218                           
  1219  0070                     ?___awmod:	
  1220                           ; 2 bytes @ 0x0
  1221                           
  1222  0070                     ?___fltol:	
  1223                           ; 2 bytes @ 0x0
  1224                           
  1225  0070                     ?___fladd:	
  1226                           ; 4 bytes @ 0x0
  1227                           
  1228  0070                     ?___xxtofl:	
  1229                           ; 4 bytes @ 0x0
  1230                           
  1231  0070                     _EUSART_is_tx_ready$355:	
  1232                           ; 4 bytes @ 0x0
  1233                           
  1234  0070                     EUSART_Write@txData:	
  1235                           ; 1 bytes @ 0x0
  1236                           
  1237  0070                     ___bmul@multiplicand:	
  1238                           ; 1 bytes @ 0x0
  1239                           
  1240  0070                     __Umul8_16@multiplicand:	
  1241                           ; 1 bytes @ 0x0
  1242                           
  1243  0070                     EUSART_SetFramingErrorHandler@interruptHandler:	
  1244                           ; 1 bytes @ 0x0
  1245                           
  1246  0070                     EUSART_SetOverrunErrorHandler@interruptHandler:	
  1247                           ; 2 bytes @ 0x0
  1248                           
  1249  0070                     EUSART_SetErrorHandler@interruptHandler:	
  1250                           ; 2 bytes @ 0x0
  1251                           
  1252  0070                     reverse@len:	
  1253                           ; 2 bytes @ 0x0
  1254                           
  1255  0070                     ___awdiv@divisor:	
  1256                           ; 2 bytes @ 0x0
  1257                           
  1258  0070                     ___awmod@divisor:	
  1259                           ; 2 bytes @ 0x0
  1260                           
  1261  0070                     ___fltol@f1:	
  1262                           ; 2 bytes @ 0x0
  1263                           
  1264  0070                     ___fladd@b:	
  1265                           ; 4 bytes @ 0x0
  1266                           
  1267  0070                     ___xxtofl@val:	
  1268                           ; 4 bytes @ 0x0
  1269                           
  1270                           
  1271                           ; 4 bytes @ 0x0
  1272  0070                     	ds	1
  1273  0071                     ??_TX_Command:
  1274  0071                     ??___bmul:	
  1275                           ; 1 bytes @ 0x1
  1276                           
  1277  0071                     TX_Command@txData:	
  1278                           ; 1 bytes @ 0x1
  1279                           
  1280                           
  1281                           ; 1 bytes @ 0x1
  1282  0071                     	ds	1
  1283  0072                     ??_EUSART_Initialize:
  1284  0072                     ??_EUSART_SetFramingErrorHandler:	
  1285                           ; 1 bytes @ 0x2
  1286                           
  1287  0072                     ??_EUSART_SetOverrunErrorHandler:	
  1288                           ; 1 bytes @ 0x2
  1289                           
  1290  0072                     ??_EUSART_SetErrorHandler:	
  1291                           ; 1 bytes @ 0x2
  1292                           
  1293  0072                     ??_strlen:	
  1294                           ; 1 bytes @ 0x2
  1295                           
  1296  0072                     ??__Umul8_16:	
  1297                           ; 1 bytes @ 0x2
  1298                           
  1299  0072                     ??_SYSTEM_Initialize:	
  1300                           ; 1 bytes @ 0x2
  1301                           
  1302  0072                     ??_reverse:	
  1303                           ; 1 bytes @ 0x2
  1304                           
  1305  0072                     ___bmul@product:	
  1306                           ; 1 bytes @ 0x2
  1307                           
  1308  0072                     ___awdiv@dividend:	
  1309                           ; 1 bytes @ 0x2
  1310                           
  1311  0072                     ___awmod@dividend:	
  1312                           ; 2 bytes @ 0x2
  1313                           
  1314                           
  1315                           ; 2 bytes @ 0x2
  1316  0072                     	ds	1
  1317  0073                     ___bmul@multiplier:
  1318  0073                     strlen@a:	
  1319                           ; 1 bytes @ 0x3
  1320                           
  1321                           
  1322                           ; 1 bytes @ 0x3
  1323  0073                     	ds	1
  1324  0074                     ??___awdiv:
  1325  0074                     ??___awmod:	
  1326                           ; 1 bytes @ 0x4
  1327                           
  1328  0074                     ??___fltol:	
  1329                           ; 1 bytes @ 0x4
  1330                           
  1331  0074                     ??___xxtofl:	
  1332                           ; 1 bytes @ 0x4
  1333                           
  1334  0074                     strlen@s:	
  1335                           ; 1 bytes @ 0x4
  1336                           
  1337  0074                     __Umul8_16@product:	
  1338                           ; 1 bytes @ 0x4
  1339                           
  1340  0074                     ___fladd@a:	
  1341                           ; 2 bytes @ 0x4
  1342                           
  1343                           
  1344                           ; 4 bytes @ 0x4
  1345  0074                     	ds	1
  1346  0075                     ??_TX_Whole_String:
  1347  0075                     reverse@temp:	
  1348                           ; 1 bytes @ 0x5
  1349                           
  1350  0075                     ___awdiv@counter:	
  1351                           ; 1 bytes @ 0x5
  1352                           
  1353  0075                     ___awmod@counter:	
  1354                           ; 1 bytes @ 0x5
  1355                           
  1356                           
  1357                           ; 1 bytes @ 0x5
  1358  0075                     	ds	1
  1359  0076                     TX_Whole_String@size_of_string:
  1360  0076                     ___awdiv@sign:	
  1361                           ; 1 bytes @ 0x6
  1362                           
  1363  0076                     ___awmod@sign:	
  1364                           ; 1 bytes @ 0x6
  1365                           
  1366  0076                     reverse@i:	
  1367                           ; 1 bytes @ 0x6
  1368                           
  1369  0076                     __Umul8_16@word_mpld:	
  1370                           ; 2 bytes @ 0x6
  1371                           
  1372                           
  1373                           ; 2 bytes @ 0x6
  1374  0076                     	ds	1
  1375  0077                     TX_Whole_String@input_string:
  1376  0077                     ___awdiv@quotient:	
  1377                           ; 1 bytes @ 0x7
  1378                           
  1379                           
  1380                           ; 2 bytes @ 0x7
  1381  0077                     	ds	1
  1382  0078                     TX_Whole_String@i:
  1383  0078                     ___fladd@signs:	
  1384                           ; 1 bytes @ 0x8
  1385                           
  1386  0078                     __Umul8_16@multiplier:	
  1387                           ; 1 bytes @ 0x8
  1388                           
  1389  0078                     ___xxtofl@sign:	
  1390                           ; 1 bytes @ 0x8
  1391                           
  1392  0078                     reverse@j:	
  1393                           ; 1 bytes @ 0x8
  1394                           
  1395                           
  1396                           ; 2 bytes @ 0x8
  1397  0078                     	ds	1
  1398  0079                     ___fltol@sign1:
  1399  0079                     ___fladd@aexp:	
  1400                           ; 1 bytes @ 0x9
  1401                           
  1402  0079                     ___xxtofl@exp:	
  1403                           ; 1 bytes @ 0x9
  1404                           
  1405                           
  1406                           ; 1 bytes @ 0x9
  1407  0079                     	ds	1
  1408  007A                     reverse@str:
  1409  007A                     ___fltol@exp1:	
  1410                           ; 1 bytes @ 0xA
  1411                           
  1412  007A                     ___fladd@bexp:	
  1413                           ; 1 bytes @ 0xA
  1414                           
  1415  007A                     ___xxtofl@arg:	
  1416                           ; 1 bytes @ 0xA
  1417                           
  1418                           
  1419                           ; 4 bytes @ 0xA
  1420  007A                     	ds	1
  1421  007B                     ??_intToStr:
  1422  007B                     ___fladd@grs:	
  1423                           ; 1 bytes @ 0xB
  1424                           
  1425                           
  1426                           ; 1 bytes @ 0xB
  1427  007B                     	ds	3
  1428  007E                     ??___flsub:
  1429                           
  1430                           	psect	cstackBANK0
  1431  0020                     __pcstackBANK0:	
  1432                           ; 1 bytes @ 0xE
  1433                           
  1434  0020                     ??___fladd:
  1435  0020                     ?_intToStr:	
  1436                           ; 1 bytes @ 0x0
  1437                           
  1438  0020                     ?__power:	
  1439                           ; 2 bytes @ 0x0
  1440                           
  1441  0020                     intToStr@x:	
  1442                           ; 4 bytes @ 0x0
  1443                           
  1444  0020                     __power@base_num:	
  1445                           ; 2 bytes @ 0x0
  1446                           
  1447                           
  1448                           ; 2 bytes @ 0x0
  1449  0020                     	ds	2
  1450  0022                     intToStr@str:
  1451  0022                     __power@exp_num:	
  1452                           ; 1 bytes @ 0x2
  1453                           
  1454                           
  1455                           ; 2 bytes @ 0x2
  1456  0022                     	ds	1
  1457  0023                     intToStr@d:
  1458                           
  1459                           ; 2 bytes @ 0x3
  1460  0023                     	ds	1
  1461  0024                     ??__power:
  1462                           
  1463                           ; 1 bytes @ 0x4
  1464  0024                     	ds	1
  1465  0025                     intToStr@i:
  1466                           
  1467                           ; 2 bytes @ 0x5
  1468  0025                     	ds	3
  1469  0028                     ?___flsub:
  1470  0028                     __power@result:	
  1471                           ; 4 bytes @ 0x8
  1472                           
  1473  0028                     ___flsub@a:	
  1474                           ; 1 bytes @ 0x8
  1475                           
  1476                           
  1477                           ; 4 bytes @ 0x8
  1478  0028                     	ds	1
  1479  0029                     ?___flmul:
  1480  0029                     ___flmul@b:	
  1481                           ; 4 bytes @ 0x9
  1482                           
  1483                           
  1484                           ; 4 bytes @ 0x9
  1485  0029                     	ds	3
  1486  002C                     ___flsub@b:
  1487                           
  1488                           ; 4 bytes @ 0xC
  1489  002C                     	ds	1
  1490  002D                     ___flmul@a:
  1491                           
  1492                           ; 4 bytes @ 0xD
  1493  002D                     	ds	4
  1494  0031                     ??___flmul:
  1495                           
  1496                           ; 1 bytes @ 0x11
  1497  0031                     	ds	5
  1498  0036                     ___flmul@sign:
  1499                           
  1500                           ; 1 bytes @ 0x16
  1501  0036                     	ds	1
  1502  0037                     ___flmul@grs:
  1503                           
  1504                           ; 4 bytes @ 0x17
  1505  0037                     	ds	4
  1506  003B                     ___flmul@aexp:
  1507                           
  1508                           ; 1 bytes @ 0x1B
  1509  003B                     	ds	1
  1510  003C                     ___flmul@bexp:
  1511                           
  1512                           ; 1 bytes @ 0x1C
  1513  003C                     	ds	1
  1514  003D                     ___flmul@prod:
  1515                           
  1516                           ; 4 bytes @ 0x1D
  1517  003D                     	ds	4
  1518  0041                     ___flmul@temp:
  1519                           
  1520                           ; 2 bytes @ 0x21
  1521  0041                     	ds	2
  1522  0043                     ?_ftoa:
  1523  0043                     ftoa@n:	
  1524                           ; 1 bytes @ 0x23
  1525                           
  1526                           
  1527                           ; 4 bytes @ 0x23
  1528  0043                     	ds	4
  1529  0047                     ftoa@res:
  1530                           
  1531                           ; 1 bytes @ 0x27
  1532  0047                     	ds	1
  1533  0048                     ftoa@afterpoint:
  1534                           
  1535                           ; 2 bytes @ 0x28
  1536  0048                     	ds	2
  1537  004A                     ??_ftoa:
  1538                           
  1539                           ; 1 bytes @ 0x2A
  1540  004A                     	ds	2
  1541  004C                     ftoa@ipart:
  1542                           
  1543                           ; 2 bytes @ 0x2C
  1544  004C                     	ds	2
  1545  004E                     ftoa@i:
  1546                           
  1547                           ; 2 bytes @ 0x2E
  1548  004E                     	ds	2
  1549  0050                     ftoa@fpart:
  1550                           
  1551                           ; 4 bytes @ 0x30
  1552  0050                     	ds	4
  1553  0054                     ??_main:
  1554                           
  1555                           ; 1 bytes @ 0x34
  1556  0054                     	ds	2
  1557  0056                     main@aNumber_str:
  1558                           
  1559                           ; 20 bytes @ 0x36
  1560  0056                     	ds	20
  1561  006A                     main@aNumber_int:
  1562                           
  1563                           ; 4 bytes @ 0x4A
  1564  006A                     	ds	4
  1565                           
  1566                           	psect	maintext
  1567  000C                     __pmaintext:	
  1568 ;;
  1569 ;;Main: autosize = 0, tempsize = 2, incstack = 0, save=0
  1570 ;;
  1571 ;; *************** function _main *****************
  1572 ;; Defined at:
  1573 ;;		line 93 in file "main.c"
  1574 ;; Parameters:    Size  Location     Type
  1575 ;;		None
  1576 ;; Auto vars:     Size  Location     Type
  1577 ;;  aNumber_str    20   54[BANK0 ] unsigned char [20]
  1578 ;;  aNumber_int     4   74[BANK0 ] float 
  1579 ;;  SPI1_read       1    0        unsigned char 
  1580 ;; Return value:  Size  Location     Type
  1581 ;;                  1    wreg      void 
  1582 ;; Registers used:
  1583 ;;		wreg, fsr1l, fsr1h, status,2, status,0, pclath, cstack
  1584 ;; Tracked objects:
  1585 ;;		On entry : B1F/0
  1586 ;;		On exit  : 0/0
  1587 ;;		Unchanged: 0/0
  1588 ;; Data sizes:     COMMON   BANK0   BANK1   BANK2   BANK3   BANK4   BANK5   BANK6   BANK7   BANK8   BANK9  BANK10  BANK1
      +1  BANK12
  1589 ;;      Params:         0       0       0       0       0       0       0       0       0       0       0       0       
      +0       0
  1590 ;;      Locals:         0      24       0       0       0       0       0       0       0       0       0       0       
      +0       0
  1591 ;;      Temps:          0       2       0       0       0       0       0       0       0       0       0       0       
      +0       0
  1592 ;;      Totals:         0      26       0       0       0       0       0       0       0       0       0       0       
      +0       0
  1593 ;;Total ram usage:       26 bytes
  1594 ;; Hardware stack levels required when called:    3
  1595 ;; This function calls:
  1596 ;;		_SYSTEM_Initialize
  1597 ;;		_TX_Whole_String
  1598 ;;		_ftoa
  1599 ;; This function is called by:
  1600 ;;		Startup code after reset
  1601 ;; This function uses a non-reentrant model
  1602 ;;
  1603                           
  1604                           
  1605                           ;psect for function _main
  1606  000C                     _main:
  1607  000C                     l2371:	
  1608                           ;incstack = 0
  1609                           ; Regs used in _main: [wreg+fsr1l+fsr1h+status,2+status,0+pclath+cstack]
  1610                           
  1611                           
  1612                           ;main.c: 95:     SYSTEM_Initialize();
  1613  000C  318E  26E0  3180   	fcall	_SYSTEM_Initialize
  1614  000F                     l2373:
  1615  000F  0022               	movlb	2	; select bank2
  1616  0010  150E               	bsf	14,2	;volatile
  1617  0011                     l2375:
  1618                           
  1619                           ;main.c: 114:     uint8_t SPI1_read;;main.c: 115:     float aNumber_int = 321.98;
  1620  0011  3043               	movlw	67
  1621  0012  0020               	movlb	0	; select bank0
  1622  0013  00ED               	movwf	main@aNumber_int+3
  1623  0014  30A0               	movlw	160
  1624  0015  00EC               	movwf	main@aNumber_int+2
  1625  0016  30FD               	movlw	253
  1626  0017  00EB               	movwf	main@aNumber_int+1
  1627  0018  3071               	movlw	113
  1628  0019  00EA               	movwf	main@aNumber_int
  1629  001A                     l2377:
  1630                           
  1631                           ;main.c: 116:     char aNumber_str[20];;main.c: 117:     ftoa(aNumber_int, aNumber_str, 
      +                          2);
  1632  001A  086D               	movf	main@aNumber_int+3,w
  1633  001B  00C6               	movwf	ftoa@n+3
  1634  001C  086C               	movf	main@aNumber_int+2,w
  1635  001D  00C5               	movwf	ftoa@n+2
  1636  001E  086B               	movf	main@aNumber_int+1,w
  1637  001F  00C4               	movwf	ftoa@n+1
  1638  0020  086A               	movf	main@aNumber_int,w
  1639  0021  00C3               	movwf	ftoa@n
  1640  0022  3056               	movlw	(low (main@aNumber_str| 0))& (0+255)
  1641  0023  00D4               	movwf	??_main
  1642  0024  0854               	movf	??_main,w
  1643  0025  00C7               	movwf	ftoa@res
  1644  0026  3002               	movlw	2
  1645  0027  00C8               	movwf	ftoa@afterpoint
  1646  0028  3000               	movlw	0
  1647  0029  00C9               	movwf	ftoa@afterpoint+1
  1648  002A  3182  2215  3180   	fcall	_ftoa
  1649  002D                     l2379:
  1650                           
  1651                           ;main.c: 120:     {;main.c: 124:         TX_Whole_String(aNumber_str);
  1652  002D  3056               	movlw	(low (main@aNumber_str| 0))& (0+255)
  1653  002E  318F  279F  3180   	fcall	_TX_Whole_String
  1654  0031                     l2381:
  1655                           
  1656                           ;main.c: 125:         _delay((unsigned long)((1000)*(16000000/4000.0)));
  1657  0031  3015               	movlw	21
  1658  0032  0020               	movlb	0	; select bank0
  1659  0033  00D5               	movwf	??_main+1
  1660  0034  304B               	movlw	75
  1661  0035  00D4               	movwf	??_main
  1662  0036  30BE               	movlw	190
  1663  0037                     u2677:
  1664  0037  0B89               	decfsz	9,f
  1665  0038  2837               	goto	u2677
  1666  0039  0BD4               	decfsz	??_main,f
  1667  003A  2837               	goto	u2677
  1668  003B  0BD5               	decfsz	??_main+1,f
  1669  003C  2837               	goto	u2677
  1670  003D  0000               	nop
  1671  003E  282D               	goto	l2379
  1672  003F  3180  2802         	ljmp	start
  1673  0041                     __end_of_main:
  1674                           
  1675                           	psect	text1
  1676  0215                     __ptext1:	
  1677 ;; *************** function _ftoa *****************
  1678 ;; Defined at:
  1679 ;;		line 80 in file "main.c"
  1680 ;; Parameters:    Size  Location     Type
  1681 ;;  n               4   35[BANK0 ] float 
  1682 ;;  res             1   39[BANK0 ] PTR unsigned char 
  1683 ;;		 -> main@aNumber_str(20), 
  1684 ;;  afterpoint      2   40[BANK0 ] int 
  1685 ;; Auto vars:     Size  Location     Type
  1686 ;;  fpart           4   48[BANK0 ] float 
  1687 ;;  i               2   46[BANK0 ] int 
  1688 ;;  ipart           2   44[BANK0 ] int 
  1689 ;; Return value:  Size  Location     Type
  1690 ;;                  1    wreg      void 
  1691 ;; Registers used:
  1692 ;;		wreg, fsr1l, fsr1h, status,2, status,0, pclath, cstack
  1693 ;; Tracked objects:
  1694 ;;		On entry : 0/0
  1695 ;;		On exit  : 0/0
  1696 ;;		Unchanged: 0/0
  1697 ;; Data sizes:     COMMON   BANK0   BANK1   BANK2   BANK3   BANK4   BANK5   BANK6   BANK7   BANK8   BANK9  BANK10  BANK1
      +1  BANK12
  1698 ;;      Params:         0       7       0       0       0       0       0       0       0       0       0       0       
      +0       0
  1699 ;;      Locals:         0       8       0       0       0       0       0       0       0       0       0       0       
      +0       0
  1700 ;;      Temps:          0       2       0       0       0       0       0       0       0       0       0       0       
      +0       0
  1701 ;;      Totals:         0      17       0       0       0       0       0       0       0       0       0       0       
      +0       0
  1702 ;;Total ram usage:       17 bytes
  1703 ;; Hardware stack levels used:    1
  1704 ;; Hardware stack levels required when called:    2
  1705 ;; This function calls:
  1706 ;;		___flmul
  1707 ;;		___flsub
  1708 ;;		___fltol
  1709 ;;		___xxtofl
  1710 ;;		__power
  1711 ;;		_intToStr
  1712 ;; This function is called by:
  1713 ;;		_main
  1714 ;; This function uses a non-reentrant model
  1715 ;;
  1716                           
  1717                           
  1718                           ;psect for function _ftoa
  1719  0215                     _ftoa:
  1720  0215                     l2333:	
  1721                           ;incstack = 0
  1722                           ; Regs used in _ftoa: [wreg+fsr1l+fsr1h+status,2+status,0+pclath+cstack]
  1723                           
  1724                           
  1725                           ;main.c: 81:   int ipart = (int)n;
  1726  0215  0020               	movlb	0	; select bank0
  1727  0216  0846               	movf	ftoa@n+3,w
  1728  0217  00F3               	movwf	___fltol@f1+3
  1729  0218  0845               	movf	ftoa@n+2,w
  1730  0219  00F2               	movwf	___fltol@f1+2
  1731  021A  0844               	movf	ftoa@n+1,w
  1732  021B  00F1               	movwf	___fltol@f1+1
  1733  021C  0843               	movf	ftoa@n,w
  1734  021D  00F0               	movwf	___fltol@f1
  1735  021E  3181  21A1  3182   	fcall	___fltol
  1736  0221  0871               	movf	?___fltol+1,w
  1737  0222  0020               	movlb	0	; select bank0
  1738  0223  00CD               	movwf	ftoa@ipart+1
  1739  0224  0870               	movf	?___fltol,w
  1740  0225  00CC               	movwf	ftoa@ipart
  1741                           
  1742                           ;main.c: 82:   float fpart = n - (float)ipart;
  1743  0226  084C               	movf	ftoa@ipart,w
  1744  0227  00F0               	movwf	___xxtofl@val
  1745  0228  084D               	movf	ftoa@ipart+1,w
  1746  0229  00F1               	movwf	___xxtofl@val+1
  1747  022A  0D89               	rlf	9,f
  1748  022B  3B89               	subwfb	9,f
  1749  022C  0989               	comf	9,f
  1750  022D  00F2               	movwf	___xxtofl@val+2
  1751  022E  00F3               	movwf	___xxtofl@val+3
  1752  022F  3001               	movlw	1
  1753  0230  3182  22B9  3182   	fcall	___xxtofl
  1754  0233  0873               	movf	?___xxtofl+3,w
  1755  0234  0020               	movlb	0	; select bank0
  1756  0235  00AB               	movwf	___flsub@a+3
  1757  0236  0872               	movf	?___xxtofl+2,w
  1758  0237  00AA               	movwf	___flsub@a+2
  1759  0238  0871               	movf	?___xxtofl+1,w
  1760  0239  00A9               	movwf	___flsub@a+1
  1761  023A  0870               	movf	?___xxtofl,w
  1762  023B  00A8               	movwf	___flsub@a
  1763  023C  0846               	movf	ftoa@n+3,w
  1764  023D  00AF               	movwf	___flsub@b+3
  1765  023E  0845               	movf	ftoa@n+2,w
  1766  023F  00AE               	movwf	___flsub@b+2
  1767  0240  0844               	movf	ftoa@n+1,w
  1768  0241  00AD               	movwf	___flsub@b+1
  1769  0242  0843               	movf	ftoa@n,w
  1770  0243  00AC               	movwf	___flsub@b
  1771  0244  318F  2739  3182   	fcall	___flsub
  1772  0247  0020               	movlb	0	; select bank0
  1773  0248  082B               	movf	?___flsub+3,w
  1774  0249  00D3               	movwf	ftoa@fpart+3
  1775  024A  082A               	movf	?___flsub+2,w
  1776  024B  00D2               	movwf	ftoa@fpart+2
  1777  024C  0829               	movf	?___flsub+1,w
  1778  024D  00D1               	movwf	ftoa@fpart+1
  1779  024E  0828               	movf	?___flsub,w
  1780  024F  00D0               	movwf	ftoa@fpart
  1781  0250                     l2335:
  1782                           
  1783                           ;main.c: 83:   int i = intToStr(ipart, res, 0);
  1784  0250  084D               	movf	ftoa@ipart+1,w
  1785  0251  00A1               	movwf	intToStr@x+1
  1786  0252  084C               	movf	ftoa@ipart,w
  1787  0253  00A0               	movwf	intToStr@x
  1788  0254  0847               	movf	ftoa@res,w
  1789  0255  00CA               	movwf	??_ftoa
  1790  0256  084A               	movf	??_ftoa,w
  1791  0257  00A2               	movwf	intToStr@str
  1792  0258  3000               	movlw	0
  1793  0259  00A3               	movwf	intToStr@d
  1794  025A  00A4               	movwf	intToStr@d+1
  1795  025B  3181  2138  3182   	fcall	_intToStr
  1796  025E  0020               	movlb	0	; select bank0
  1797  025F  0821               	movf	?_intToStr+1,w
  1798  0260  00CF               	movwf	ftoa@i+1
  1799  0261  0820               	movf	?_intToStr,w
  1800  0262  00CE               	movwf	ftoa@i
  1801  0263                     l2337:
  1802                           
  1803                           ;main.c: 84:   if (afterpoint != 0) {
  1804  0263  0848               	movf	ftoa@afterpoint,w
  1805  0264  0449               	iorwf	ftoa@afterpoint+1,w
  1806  0265  1903               	btfsc	3,2
  1807  0266  2A68               	goto	u2631
  1808  0267  2A69               	goto	u2630
  1809  0268                     u2631:
  1810  0268  2AB8               	goto	l249
  1811  0269                     u2630:
  1812  0269                     l2339:
  1813                           
  1814                           ;main.c: 85:     res[i] = '.';
  1815  0269  302E               	movlw	46
  1816  026A  00CA               	movwf	??_ftoa
  1817  026B  084E               	movf	ftoa@i,w
  1818  026C  0747               	addwf	ftoa@res,w
  1819  026D  00CB               	movwf	??_ftoa+1
  1820  026E  084B               	movf	??_ftoa+1,w
  1821  026F  0086               	movwf	6
  1822  0270  0187               	clrf	7
  1823  0271  084A               	movf	??_ftoa,w
  1824  0272  0081               	movwf	1
  1825  0273                     l2341:
  1826                           
  1827                           ;main.c: 86:     fpart = fpart * _power(10, afterpoint);
  1828  0273  0853               	movf	ftoa@fpart+3,w
  1829  0274  00AC               	movwf	___flmul@b+3
  1830  0275  0852               	movf	ftoa@fpart+2,w
  1831  0276  00AB               	movwf	___flmul@b+2
  1832  0277  0851               	movf	ftoa@fpart+1,w
  1833  0278  00AA               	movwf	___flmul@b+1
  1834  0279  0850               	movf	ftoa@fpart,w
  1835  027A  00A9               	movwf	___flmul@b
  1836  027B  0849               	movf	ftoa@afterpoint+1,w
  1837  027C  00A3               	movwf	__power@exp_num+1
  1838  027D  0848               	movf	ftoa@afterpoint,w
  1839  027E  00A2               	movwf	__power@exp_num
  1840  027F  300A               	movlw	10
  1841  0280  00A0               	movwf	__power@base_num
  1842  0281  3000               	movlw	0
  1843  0282  00A1               	movwf	__power@base_num+1
  1844  0283  318F  27CB  3182   	fcall	__power
  1845  0286  0020               	movlb	0	; select bank0
  1846  0287  0823               	movf	?__power+3,w
  1847  0288  00B0               	movwf	___flmul@a+3
  1848  0289  0822               	movf	?__power+2,w
  1849  028A  00AF               	movwf	___flmul@a+2
  1850  028B  0821               	movf	?__power+1,w
  1851  028C  00AE               	movwf	___flmul@a+1
  1852  028D  0820               	movf	?__power,w
  1853  028E  00AD               	movwf	___flmul@a
  1854  028F  3185  25A4  3182   	fcall	___flmul
  1855  0292  0020               	movlb	0	; select bank0
  1856  0293  082C               	movf	?___flmul+3,w
  1857  0294  00D3               	movwf	ftoa@fpart+3
  1858  0295  082B               	movf	?___flmul+2,w
  1859  0296  00D2               	movwf	ftoa@fpart+2
  1860  0297  082A               	movf	?___flmul+1,w
  1861  0298  00D1               	movwf	ftoa@fpart+1
  1862  0299  0829               	movf	?___flmul,w
  1863  029A  00D0               	movwf	ftoa@fpart
  1864  029B                     l2343:
  1865                           
  1866                           ;main.c: 87:     intToStr((int)fpart, res + i + 1, afterpoint);
  1867  029B  0853               	movf	ftoa@fpart+3,w
  1868  029C  00F3               	movwf	___fltol@f1+3
  1869  029D  0852               	movf	ftoa@fpart+2,w
  1870  029E  00F2               	movwf	___fltol@f1+2
  1871  029F  0851               	movf	ftoa@fpart+1,w
  1872  02A0  00F1               	movwf	___fltol@f1+1
  1873  02A1  0850               	movf	ftoa@fpart,w
  1874  02A2  00F0               	movwf	___fltol@f1
  1875  02A3  3181  21A1  3182   	fcall	___fltol
  1876  02A6  0871               	movf	?___fltol+1,w
  1877  02A7  0020               	movlb	0	; select bank0
  1878  02A8  00A1               	movwf	intToStr@x+1
  1879  02A9  0870               	movf	?___fltol,w
  1880  02AA  00A0               	movwf	intToStr@x
  1881  02AB  0847               	movf	ftoa@res,w
  1882  02AC  074E               	addwf	ftoa@i,w
  1883  02AD  3E01               	addlw	1
  1884  02AE  00CA               	movwf	??_ftoa
  1885  02AF  084A               	movf	??_ftoa,w
  1886  02B0  00A2               	movwf	intToStr@str
  1887  02B1  0849               	movf	ftoa@afterpoint+1,w
  1888  02B2  00A4               	movwf	intToStr@d+1
  1889  02B3  0848               	movf	ftoa@afterpoint,w
  1890  02B4  00A3               	movwf	intToStr@d
  1891  02B5  3181  2138  3182   	fcall	_intToStr
  1892  02B8                     l249:
  1893  02B8  0008               	return
  1894  02B9                     __end_of_ftoa:
  1895                           
  1896                           	psect	text2
  1897  0138                     __ptext2:	
  1898 ;; *************** function _intToStr *****************
  1899 ;; Defined at:
  1900 ;;		line 67 in file "main.c"
  1901 ;; Parameters:    Size  Location     Type
  1902 ;;  x               2    0[BANK0 ] int 
  1903 ;;  str             1    2[BANK0 ] PTR unsigned char 
  1904 ;;		 -> main@aNumber_str(20), 
  1905 ;;  d               2    3[BANK0 ] int 
  1906 ;; Auto vars:     Size  Location     Type
  1907 ;;  i               2    5[BANK0 ] int 
  1908 ;; Return value:  Size  Location     Type
  1909 ;;                  2    0[BANK0 ] int 
  1910 ;; Registers used:
  1911 ;;		wreg, fsr1l, fsr1h, status,2, status,0, pclath, cstack
  1912 ;; Tracked objects:
  1913 ;;		On entry : 0/0
  1914 ;;		On exit  : 0/0
  1915 ;;		Unchanged: 0/0
  1916 ;; Data sizes:     COMMON   BANK0   BANK1   BANK2   BANK3   BANK4   BANK5   BANK6   BANK7   BANK8   BANK9  BANK10  BANK1
      +1  BANK12
  1917 ;;      Params:         0       5       0       0       0       0       0       0       0       0       0       0       
      +0       0
  1918 ;;      Locals:         0       2       0       0       0       0       0       0       0       0       0       0       
      +0       0
  1919 ;;      Temps:          2       0       0       0       0       0       0       0       0       0       0       0       
      +0       0
  1920 ;;      Totals:         2       7       0       0       0       0       0       0       0       0       0       0       
      +0       0
  1921 ;;Total ram usage:        9 bytes
  1922 ;; Hardware stack levels used:    1
  1923 ;; Hardware stack levels required when called:    1
  1924 ;; This function calls:
  1925 ;;		___awdiv
  1926 ;;		___awmod
  1927 ;;		_reverse
  1928 ;; This function is called by:
  1929 ;;		_ftoa
  1930 ;; This function uses a non-reentrant model
  1931 ;;
  1932                           
  1933                           
  1934                           ;psect for function _intToStr
  1935  0138                     _intToStr:
  1936  0138                     l2099:	
  1937                           ;incstack = 0
  1938                           ; Regs used in _intToStr: [wreg+fsr1l+fsr1h+status,2+status,0+pclath+cstack]
  1939                           
  1940                           
  1941                           ;main.c: 68:   int i = 0;
  1942  0138  0020               	movlb	0	; select bank0
  1943  0139  01A5               	clrf	intToStr@i
  1944  013A  01A6               	clrf	intToStr@i+1
  1945                           
  1946                           ;main.c: 69:   while (x) {
  1947  013B  2967               	goto	l2107
  1948  013C                     l2101:
  1949                           
  1950                           ;main.c: 70:     str[i++] = (x % 10) + '0';
  1951  013C  300A               	movlw	10
  1952  013D  00F0               	movwf	___awmod@divisor
  1953  013E  3000               	movlw	0
  1954  013F  00F1               	movwf	___awmod@divisor+1
  1955  0140  0821               	movf	intToStr@x+1,w
  1956  0141  00F3               	movwf	___awmod@dividend+1
  1957  0142  0820               	movf	intToStr@x,w
  1958  0143  00F2               	movwf	___awmod@dividend
  1959  0144  3180  2086  3181   	fcall	___awmod
  1960  0147  0870               	movf	?___awmod,w
  1961  0148  3E30               	addlw	48
  1962  0149  00FB               	movwf	??_intToStr
  1963  014A  0020               	movlb	0	; select bank0
  1964  014B  0825               	movf	intToStr@i,w
  1965  014C  0722               	addwf	intToStr@str,w
  1966  014D  00FC               	movwf	??_intToStr+1
  1967  014E  087C               	movf	??_intToStr+1,w
  1968  014F  0086               	movwf	6
  1969  0150  0187               	clrf	7
  1970  0151  087B               	movf	??_intToStr,w
  1971  0152  0081               	movwf	1
  1972  0153                     l2103:
  1973  0153  3001               	movlw	1
  1974  0154  07A5               	addwf	intToStr@i,f
  1975  0155  3000               	movlw	0
  1976  0156  3DA6               	addwfc	intToStr@i+1,f
  1977  0157                     l2105:
  1978                           
  1979                           ;main.c: 71:     x = x / 10;
  1980  0157  300A               	movlw	10
  1981  0158  00F0               	movwf	___awdiv@divisor
  1982  0159  3000               	movlw	0
  1983  015A  00F1               	movwf	___awdiv@divisor+1
  1984  015B  0821               	movf	intToStr@x+1,w
  1985  015C  00F3               	movwf	___awdiv@dividend+1
  1986  015D  0820               	movf	intToStr@x,w
  1987  015E  00F2               	movwf	___awdiv@dividend
  1988  015F  3180  20D9  3181   	fcall	___awdiv
  1989  0162  0871               	movf	?___awdiv+1,w
  1990  0163  0020               	movlb	0	; select bank0
  1991  0164  00A1               	movwf	intToStr@x+1
  1992  0165  0870               	movf	?___awdiv,w
  1993  0166  00A0               	movwf	intToStr@x
  1994  0167                     l2107:
  1995                           
  1996                           ;main.c: 69:   while (x) {
  1997  0167  0820               	movf	intToStr@x,w
  1998  0168  0421               	iorwf	intToStr@x+1,w
  1999  0169  1D03               	btfss	3,2
  2000  016A  296C               	goto	u2221
  2001  016B  296D               	goto	u2220
  2002  016C                     u2221:
  2003  016C  293C               	goto	l2101
  2004  016D                     u2220:
  2005  016D  297D               	goto	l2113
  2006  016E                     l2109:
  2007                           
  2008                           ;main.c: 74:     str[i++] = '0';
  2009  016E  3030               	movlw	48
  2010  016F  00FB               	movwf	??_intToStr
  2011  0170  0020               	movlb	0	; select bank0
  2012  0171  0825               	movf	intToStr@i,w
  2013  0172  0722               	addwf	intToStr@str,w
  2014  0173  00FC               	movwf	??_intToStr+1
  2015  0174  087C               	movf	??_intToStr+1,w
  2016  0175  0086               	movwf	6
  2017  0176  0187               	clrf	7
  2018  0177  087B               	movf	??_intToStr,w
  2019  0178  0081               	movwf	1
  2020  0179                     l2111:
  2021  0179  3001               	movlw	1
  2022  017A  07A5               	addwf	intToStr@i,f
  2023  017B  3000               	movlw	0
  2024  017C  3DA6               	addwfc	intToStr@i+1,f
  2025  017D                     l2113:
  2026                           
  2027                           ;main.c: 73:   while (i < d)
  2028  017D  0826               	movf	intToStr@i+1,w
  2029  017E  3A80               	xorlw	128
  2030  017F  00FB               	movwf	??_intToStr
  2031  0180  0824               	movf	intToStr@d+1,w
  2032  0181  3A80               	xorlw	128
  2033  0182  027B               	subwf	??_intToStr,w
  2034  0183  1D03               	skipz
  2035  0184  2987               	goto	u2235
  2036  0185  0823               	movf	intToStr@d,w
  2037  0186  0225               	subwf	intToStr@i,w
  2038  0187                     u2235:
  2039  0187  1C03               	skipc
  2040  0188  298A               	goto	u2231
  2041  0189  298B               	goto	u2230
  2042  018A                     u2231:
  2043  018A  296E               	goto	l2109
  2044  018B                     u2230:
  2045  018B                     l2115:
  2046                           
  2047                           ;main.c: 75:   reverse(str, i);
  2048  018B  0020               	movlb	0	; select bank0
  2049  018C  0826               	movf	intToStr@i+1,w
  2050  018D  00F1               	movwf	reverse@len+1
  2051  018E  0825               	movf	intToStr@i,w
  2052  018F  00F0               	movwf	reverse@len
  2053  0190  0822               	movf	intToStr@str,w
  2054  0191  3180  2041  3181   	fcall	_reverse
  2055  0194                     l2117:
  2056                           
  2057                           ;main.c: 76:   str[i] = '\0';
  2058  0194  0020               	movlb	0	; select bank0
  2059  0195  0825               	movf	intToStr@i,w
  2060  0196  0722               	addwf	intToStr@str,w
  2061  0197  00FB               	movwf	??_intToStr
  2062  0198  087B               	movf	??_intToStr,w
  2063  0199  0086               	movwf	6
  2064  019A  0187               	clrf	7
  2065  019B  0181               	clrf	1
  2066  019C                     l2119:
  2067                           
  2068                           ;main.c: 77:   return i;
  2069  019C  0826               	movf	intToStr@i+1,w
  2070  019D  00A1               	movwf	?_intToStr+1
  2071  019E  0825               	movf	intToStr@i,w
  2072  019F  00A0               	movwf	?_intToStr
  2073  01A0                     l245:
  2074  01A0  0008               	return
  2075  01A1                     __end_of_intToStr:
  2076                           
  2077                           	psect	text3
  2078  0041                     __ptext3:	
  2079 ;; *************** function _reverse *****************
  2080 ;; Defined at:
  2081 ;;		line 55 in file "main.c"
  2082 ;; Parameters:    Size  Location     Type
  2083 ;;  str             1    wreg     PTR unsigned char 
  2084 ;;		 -> main@aNumber_str(20), 
  2085 ;;  len             2    0[COMMON] int 
  2086 ;; Auto vars:     Size  Location     Type
  2087 ;;  str             1   10[COMMON] PTR unsigned char 
  2088 ;;		 -> main@aNumber_str(20), 
  2089 ;;  j               2    8[COMMON] int 
  2090 ;;  i               2    6[COMMON] int 
  2091 ;;  temp            1    5[COMMON] unsigned char 
  2092 ;; Return value:  Size  Location     Type
  2093 ;;                  1    wreg      void 
  2094 ;; Registers used:
  2095 ;;		wreg, fsr1l, fsr1h, status,2, status,0
  2096 ;; Tracked objects:
  2097 ;;		On entry : 0/0
  2098 ;;		On exit  : 0/0
  2099 ;;		Unchanged: 0/0
  2100 ;; Data sizes:     COMMON   BANK0   BANK1   BANK2   BANK3   BANK4   BANK5   BANK6   BANK7   BANK8   BANK9  BANK10  BANK1
      +1  BANK12
  2101 ;;      Params:         2       0       0       0       0       0       0       0       0       0       0       0       
      +0       0
  2102 ;;      Locals:         6       0       0       0       0       0       0       0       0       0       0       0       
      +0       0
  2103 ;;      Temps:          3       0       0       0       0       0       0       0       0       0       0       0       
      +0       0
  2104 ;;      Totals:        11       0       0       0       0       0       0       0       0       0       0       0       
      +0       0
  2105 ;;Total ram usage:       11 bytes
  2106 ;; Hardware stack levels used:    1
  2107 ;; This function calls:
  2108 ;;		Nothing
  2109 ;; This function is called by:
  2110 ;;		_intToStr
  2111 ;; This function uses a non-reentrant model
  2112 ;;
  2113                           
  2114                           
  2115                           ;psect for function _reverse
  2116  0041                     _reverse:
  2117                           
  2118                           ;incstack = 0
  2119                           ; Regs used in _reverse: [wreg+fsr1l+fsr1h+status,2+status,0]
  2120                           ;reverse@str stored from wreg
  2121  0041  00FA               	movwf	reverse@str
  2122  0042                     l1691:
  2123                           
  2124                           ;main.c: 56:   int i = 0, j = len - 1;
  2125  0042  01F6               	clrf	reverse@i
  2126  0043  01F7               	clrf	reverse@i+1
  2127  0044                     l1693:
  2128  0044  0870               	movf	reverse@len,w
  2129  0045  3EFF               	addlw	255
  2130  0046  00F8               	movwf	reverse@j
  2131  0047  30FF               	movlw	255
  2132  0048  3D71               	addwfc	reverse@len+1,w
  2133  0049  00F9               	movwf	reverse@j+1
  2134                           
  2135                           ;main.c: 57:   char temp;;main.c: 58:   while (i < j) {
  2136  004A  2877               	goto	l1701
  2137  004B                     l1695:
  2138                           
  2139                           ;main.c: 59:     temp = str[i];
  2140  004B  0876               	movf	reverse@i,w
  2141  004C  077A               	addwf	reverse@str,w
  2142  004D  00F2               	movwf	??_reverse
  2143  004E  0872               	movf	??_reverse,w
  2144  004F  0086               	movwf	6
  2145  0050  0187               	clrf	7
  2146  0051  0801               	movf	1,w
  2147  0052  00F3               	movwf	??_reverse+1
  2148  0053  0873               	movf	??_reverse+1,w
  2149  0054  00F5               	movwf	reverse@temp
  2150                           
  2151                           ;main.c: 60:     str[i] = str[j];
  2152  0055  0878               	movf	reverse@j,w
  2153  0056  077A               	addwf	reverse@str,w
  2154  0057  00F2               	movwf	??_reverse
  2155  0058  0872               	movf	??_reverse,w
  2156  0059  0086               	movwf	6
  2157  005A  0187               	clrf	7
  2158  005B  0801               	movf	1,w
  2159  005C  00F3               	movwf	??_reverse+1
  2160  005D  0876               	movf	reverse@i,w
  2161  005E  077A               	addwf	reverse@str,w
  2162  005F  00F4               	movwf	??_reverse+2
  2163  0060  0874               	movf	??_reverse+2,w
  2164  0061  0086               	movwf	6
  2165  0062  0187               	clrf	7
  2166  0063  0873               	movf	??_reverse+1,w
  2167  0064  0081               	movwf	1
  2168                           
  2169                           ;main.c: 61:     str[j] = temp;
  2170  0065  0875               	movf	reverse@temp,w
  2171  0066  00F2               	movwf	??_reverse
  2172  0067  0878               	movf	reverse@j,w
  2173  0068  077A               	addwf	reverse@str,w
  2174  0069  00F3               	movwf	??_reverse+1
  2175  006A  0873               	movf	??_reverse+1,w
  2176  006B  0086               	movwf	6
  2177  006C  0187               	clrf	7
  2178  006D  0872               	movf	??_reverse,w
  2179  006E  0081               	movwf	1
  2180  006F                     l1697:
  2181                           
  2182                           ;main.c: 62:     i++;
  2183  006F  3001               	movlw	1
  2184  0070  07F6               	addwf	reverse@i,f
  2185  0071  3000               	movlw	0
  2186  0072  3DF7               	addwfc	reverse@i+1,f
  2187  0073                     l1699:
  2188                           
  2189                           ;main.c: 63:     j--;
  2190  0073  30FF               	movlw	255
  2191  0074  07F8               	addwf	reverse@j,f
  2192  0075  30FF               	movlw	255
  2193  0076  3DF9               	addwfc	reverse@j+1,f
  2194  0077                     l1701:
  2195                           
  2196                           ;main.c: 58:   while (i < j) {
  2197  0077  0877               	movf	reverse@i+1,w
  2198  0078  3A80               	xorlw	128
  2199  0079  00F2               	movwf	??_reverse
  2200  007A  0879               	movf	reverse@j+1,w
  2201  007B  3A80               	xorlw	128
  2202  007C  0272               	subwf	??_reverse,w
  2203  007D  1D03               	skipz
  2204  007E  2881               	goto	u1405
  2205  007F  0878               	movf	reverse@j,w
  2206  0080  0276               	subwf	reverse@i,w
  2207  0081                     u1405:
  2208  0081  1C03               	skipc
  2209  0082  2884               	goto	u1401
  2210  0083  2885               	goto	u1400
  2211  0084                     u1401:
  2212  0084  284B               	goto	l1695
  2213  0085                     u1400:
  2214  0085                     l236:
  2215  0085  0008               	return
  2216  0086                     __end_of_reverse:
  2217                           
  2218                           	psect	text4
  2219  0086                     __ptext4:	
  2220 ;; *************** function ___awmod *****************
  2221 ;; Defined at:
  2222 ;;		line 5 in file "/opt/microchip/xc8/v2.31/pic/sources/c99/common/awmod.c"
  2223 ;; Parameters:    Size  Location     Type
  2224 ;;  divisor         2    0[COMMON] int 
  2225 ;;  dividend        2    2[COMMON] int 
  2226 ;; Auto vars:     Size  Location     Type
  2227 ;;  sign            1    6[COMMON] unsigned char 
  2228 ;;  counter         1    5[COMMON] unsigned char 
  2229 ;; Return value:  Size  Location     Type
  2230 ;;                  2    0[COMMON] int 
  2231 ;; Registers used:
  2232 ;;		wreg, status,2, status,0
  2233 ;; Tracked objects:
  2234 ;;		On entry : 0/0
  2235 ;;		On exit  : 0/0
  2236 ;;		Unchanged: 0/0
  2237 ;; Data sizes:     COMMON   BANK0   BANK1   BANK2   BANK3   BANK4   BANK5   BANK6   BANK7   BANK8   BANK9  BANK10  BANK1
      +1  BANK12
  2238 ;;      Params:         4       0       0       0       0       0       0       0       0       0       0       0       
      +0       0
  2239 ;;      Locals:         2       0       0       0       0       0       0       0       0       0       0       0       
      +0       0
  2240 ;;      Temps:          1       0       0       0       0       0       0       0       0       0       0       0       
      +0       0
  2241 ;;      Totals:         7       0       0       0       0       0       0       0       0       0       0       0       
      +0       0
  2242 ;;Total ram usage:        7 bytes
  2243 ;; Hardware stack levels used:    1
  2244 ;; This function calls:
  2245 ;;		Nothing
  2246 ;; This function is called by:
  2247 ;;		_intToStr
  2248 ;; This function uses a non-reentrant model
  2249 ;;
  2250                           
  2251                           
  2252                           ;psect for function ___awmod
  2253  0086                     ___awmod:
  2254  0086                     l1761:	
  2255                           ;incstack = 0
  2256                           ; Regs used in ___awmod: [wreg+status,2+status,0]
  2257                           
  2258  0086  01F6               	clrf	___awmod@sign
  2259  0087                     l1763:
  2260  0087  1FF3               	btfss	___awmod@dividend+1,7
  2261  0088  288A               	goto	u1531
  2262  0089  288B               	goto	u1530
  2263  008A                     u1531:
  2264  008A  2892               	goto	l1769
  2265  008B                     u1530:
  2266  008B                     l1765:
  2267  008B  09F2               	comf	___awmod@dividend,f
  2268  008C  09F3               	comf	___awmod@dividend+1,f
  2269  008D  0AF2               	incf	___awmod@dividend,f
  2270  008E  1903               	skipnz
  2271  008F  0AF3               	incf	___awmod@dividend+1,f
  2272  0090                     l1767:
  2273  0090  01F6               	clrf	___awmod@sign
  2274  0091  0AF6               	incf	___awmod@sign,f
  2275  0092                     l1769:
  2276  0092  1FF1               	btfss	___awmod@divisor+1,7
  2277  0093  2895               	goto	u1541
  2278  0094  2896               	goto	u1540
  2279  0095                     u1541:
  2280  0095  289B               	goto	l1773
  2281  0096                     u1540:
  2282  0096                     l1771:
  2283  0096  09F0               	comf	___awmod@divisor,f
  2284  0097  09F1               	comf	___awmod@divisor+1,f
  2285  0098  0AF0               	incf	___awmod@divisor,f
  2286  0099  1903               	skipnz
  2287  009A  0AF1               	incf	___awmod@divisor+1,f
  2288  009B                     l1773:
  2289  009B  0870               	movf	___awmod@divisor,w
  2290  009C  0471               	iorwf	___awmod@divisor+1,w
  2291  009D  1903               	btfsc	3,2
  2292  009E  28A0               	goto	u1551
  2293  009F  28A1               	goto	u1550
  2294  00A0                     u1551:
  2295  00A0  28CA               	goto	l1791
  2296  00A1                     u1550:
  2297  00A1                     l1775:
  2298  00A1  01F5               	clrf	___awmod@counter
  2299  00A2  0AF5               	incf	___awmod@counter,f
  2300  00A3  28AD               	goto	l1781
  2301  00A4                     l1777:
  2302  00A4  3001               	movlw	1
  2303  00A5                     u1565:
  2304  00A5  35F0               	lslf	___awmod@divisor,f
  2305  00A6  0DF1               	rlf	___awmod@divisor+1,f
  2306  00A7  0B89               	decfsz	9,f
  2307  00A8  28A5               	goto	u1565
  2308  00A9                     l1779:
  2309  00A9  3001               	movlw	1
  2310  00AA  00F4               	movwf	??___awmod
  2311  00AB  0874               	movf	??___awmod,w
  2312  00AC  07F5               	addwf	___awmod@counter,f
  2313  00AD                     l1781:
  2314  00AD  1FF1               	btfss	___awmod@divisor+1,7
  2315  00AE  28B0               	goto	u1571
  2316  00AF  28B1               	goto	u1570
  2317  00B0                     u1571:
  2318  00B0  28A4               	goto	l1777
  2319  00B1                     u1570:
  2320  00B1                     l1783:
  2321  00B1  0871               	movf	___awmod@divisor+1,w
  2322  00B2  0273               	subwf	___awmod@dividend+1,w
  2323  00B3  1D03               	skipz
  2324  00B4  28B7               	goto	u1585
  2325  00B5  0870               	movf	___awmod@divisor,w
  2326  00B6  0272               	subwf	___awmod@dividend,w
  2327  00B7                     u1585:
  2328  00B7  1C03               	skipc
  2329  00B8  28BA               	goto	u1581
  2330  00B9  28BB               	goto	u1580
  2331  00BA                     u1581:
  2332  00BA  28BF               	goto	l1787
  2333  00BB                     u1580:
  2334  00BB                     l1785:
  2335  00BB  0870               	movf	___awmod@divisor,w
  2336  00BC  02F2               	subwf	___awmod@dividend,f
  2337  00BD  0871               	movf	___awmod@divisor+1,w
  2338  00BE  3BF3               	subwfb	___awmod@dividend+1,f
  2339  00BF                     l1787:
  2340  00BF  3001               	movlw	1
  2341  00C0                     u1595:
  2342  00C0  36F1               	lsrf	___awmod@divisor+1,f
  2343  00C1  0CF0               	rrf	___awmod@divisor,f
  2344  00C2  0B89               	decfsz	9,f
  2345  00C3  28C0               	goto	u1595
  2346  00C4                     l1789:
  2347  00C4  3001               	movlw	1
  2348  00C5  02F5               	subwf	___awmod@counter,f
  2349  00C6  1D03               	btfss	3,2
  2350  00C7  28C9               	goto	u1601
  2351  00C8  28CA               	goto	u1600
  2352  00C9                     u1601:
  2353  00C9  28B1               	goto	l1783
  2354  00CA                     u1600:
  2355  00CA                     l1791:
  2356  00CA  0876               	movf	___awmod@sign,w
  2357  00CB  1903               	btfsc	3,2
  2358  00CC  28CE               	goto	u1611
  2359  00CD  28CF               	goto	u1610
  2360  00CE                     u1611:
  2361  00CE  28D4               	goto	l1795
  2362  00CF                     u1610:
  2363  00CF                     l1793:
  2364  00CF  09F2               	comf	___awmod@dividend,f
  2365  00D0  09F3               	comf	___awmod@dividend+1,f
  2366  00D1  0AF2               	incf	___awmod@dividend,f
  2367  00D2  1903               	skipnz
  2368  00D3  0AF3               	incf	___awmod@dividend+1,f
  2369  00D4                     l1795:
  2370  00D4  0873               	movf	___awmod@dividend+1,w
  2371  00D5  00F1               	movwf	?___awmod+1
  2372  00D6  0872               	movf	___awmod@dividend,w
  2373  00D7  00F0               	movwf	?___awmod
  2374  00D8                     l591:
  2375  00D8  0008               	return
  2376  00D9                     __end_of___awmod:
  2377                           
  2378                           	psect	text5
  2379  00D9                     __ptext5:	
  2380 ;; *************** function ___awdiv *****************
  2381 ;; Defined at:
  2382 ;;		line 5 in file "/opt/microchip/xc8/v2.31/pic/sources/c99/common/awdiv.c"
  2383 ;; Parameters:    Size  Location     Type
  2384 ;;  divisor         2    0[COMMON] int 
  2385 ;;  dividend        2    2[COMMON] int 
  2386 ;; Auto vars:     Size  Location     Type
  2387 ;;  quotient        2    7[COMMON] int 
  2388 ;;  sign            1    6[COMMON] unsigned char 
  2389 ;;  counter         1    5[COMMON] unsigned char 
  2390 ;; Return value:  Size  Location     Type
  2391 ;;                  2    0[COMMON] int 
  2392 ;; Registers used:
  2393 ;;		wreg, status,2, status,0
  2394 ;; Tracked objects:
  2395 ;;		On entry : 0/0
  2396 ;;		On exit  : 0/0
  2397 ;;		Unchanged: 0/0
  2398 ;; Data sizes:     COMMON   BANK0   BANK1   BANK2   BANK3   BANK4   BANK5   BANK6   BANK7   BANK8   BANK9  BANK10  BANK1
      +1  BANK12
  2399 ;;      Params:         4       0       0       0       0       0       0       0       0       0       0       0       
      +0       0
  2400 ;;      Locals:         4       0       0       0       0       0       0       0       0       0       0       0       
      +0       0
  2401 ;;      Temps:          1       0       0       0       0       0       0       0       0       0       0       0       
      +0       0
  2402 ;;      Totals:         9       0       0       0       0       0       0       0       0       0       0       0       
      +0       0
  2403 ;;Total ram usage:        9 bytes
  2404 ;; Hardware stack levels used:    1
  2405 ;; This function calls:
  2406 ;;		Nothing
  2407 ;; This function is called by:
  2408 ;;		_intToStr
  2409 ;; This function uses a non-reentrant model
  2410 ;;
  2411                           
  2412                           
  2413                           ;psect for function ___awdiv
  2414  00D9                     ___awdiv:
  2415  00D9                     l1717:	
  2416                           ;incstack = 0
  2417                           ; Regs used in ___awdiv: [wreg+status,2+status,0]
  2418                           
  2419  00D9  01F6               	clrf	___awdiv@sign
  2420  00DA                     l1719:
  2421  00DA  1FF1               	btfss	___awdiv@divisor+1,7
  2422  00DB  28DD               	goto	u1431
  2423  00DC  28DE               	goto	u1430
  2424  00DD                     u1431:
  2425  00DD  28E5               	goto	l1725
  2426  00DE                     u1430:
  2427  00DE                     l1721:
  2428  00DE  09F0               	comf	___awdiv@divisor,f
  2429  00DF  09F1               	comf	___awdiv@divisor+1,f
  2430  00E0  0AF0               	incf	___awdiv@divisor,f
  2431  00E1  1903               	skipnz
  2432  00E2  0AF1               	incf	___awdiv@divisor+1,f
  2433  00E3                     l1723:
  2434  00E3  01F6               	clrf	___awdiv@sign
  2435  00E4  0AF6               	incf	___awdiv@sign,f
  2436  00E5                     l1725:
  2437  00E5  1FF3               	btfss	___awdiv@dividend+1,7
  2438  00E6  28E8               	goto	u1441
  2439  00E7  28E9               	goto	u1440
  2440  00E8                     u1441:
  2441  00E8  28F2               	goto	l1731
  2442  00E9                     u1440:
  2443  00E9                     l1727:
  2444  00E9  09F2               	comf	___awdiv@dividend,f
  2445  00EA  09F3               	comf	___awdiv@dividend+1,f
  2446  00EB  0AF2               	incf	___awdiv@dividend,f
  2447  00EC  1903               	skipnz
  2448  00ED  0AF3               	incf	___awdiv@dividend+1,f
  2449  00EE                     l1729:
  2450  00EE  3001               	movlw	1
  2451  00EF  00F4               	movwf	??___awdiv
  2452  00F0  0874               	movf	??___awdiv,w
  2453  00F1  06F6               	xorwf	___awdiv@sign,f
  2454  00F2                     l1731:
  2455  00F2  01F7               	clrf	___awdiv@quotient
  2456  00F3  01F8               	clrf	___awdiv@quotient+1
  2457  00F4                     l1733:
  2458  00F4  0870               	movf	___awdiv@divisor,w
  2459  00F5  0471               	iorwf	___awdiv@divisor+1,w
  2460  00F6  1903               	btfsc	3,2
  2461  00F7  28F9               	goto	u1451
  2462  00F8  28FA               	goto	u1450
  2463  00F9                     u1451:
  2464  00F9  2929               	goto	l1753
  2465  00FA                     u1450:
  2466  00FA                     l1735:
  2467  00FA  01F5               	clrf	___awdiv@counter
  2468  00FB  0AF5               	incf	___awdiv@counter,f
  2469  00FC  2906               	goto	l1741
  2470  00FD                     l1737:
  2471  00FD  3001               	movlw	1
  2472  00FE                     u1465:
  2473  00FE  35F0               	lslf	___awdiv@divisor,f
  2474  00FF  0DF1               	rlf	___awdiv@divisor+1,f
  2475  0100  0B89               	decfsz	9,f
  2476  0101  28FE               	goto	u1465
  2477  0102                     l1739:
  2478  0102  3001               	movlw	1
  2479  0103  00F4               	movwf	??___awdiv
  2480  0104  0874               	movf	??___awdiv,w
  2481  0105  07F5               	addwf	___awdiv@counter,f
  2482  0106                     l1741:
  2483  0106  1FF1               	btfss	___awdiv@divisor+1,7
  2484  0107  2909               	goto	u1471
  2485  0108  290A               	goto	u1470
  2486  0109                     u1471:
  2487  0109  28FD               	goto	l1737
  2488  010A                     u1470:
  2489  010A                     l1743:
  2490  010A  3001               	movlw	1
  2491  010B                     u1485:
  2492  010B  35F7               	lslf	___awdiv@quotient,f
  2493  010C  0DF8               	rlf	___awdiv@quotient+1,f
  2494  010D  0B89               	decfsz	9,f
  2495  010E  290B               	goto	u1485
  2496  010F  0871               	movf	___awdiv@divisor+1,w
  2497  0110  0273               	subwf	___awdiv@dividend+1,w
  2498  0111  1D03               	skipz
  2499  0112  2915               	goto	u1495
  2500  0113  0870               	movf	___awdiv@divisor,w
  2501  0114  0272               	subwf	___awdiv@dividend,w
  2502  0115                     u1495:
  2503  0115  1C03               	skipc
  2504  0116  2918               	goto	u1491
  2505  0117  2919               	goto	u1490
  2506  0118                     u1491:
  2507  0118  291E               	goto	l1749
  2508  0119                     u1490:
  2509  0119                     l1745:
  2510  0119  0870               	movf	___awdiv@divisor,w
  2511  011A  02F2               	subwf	___awdiv@dividend,f
  2512  011B  0871               	movf	___awdiv@divisor+1,w
  2513  011C  3BF3               	subwfb	___awdiv@dividend+1,f
  2514  011D                     l1747:
  2515  011D  1477               	bsf	___awdiv@quotient,0
  2516  011E                     l1749:
  2517  011E  3001               	movlw	1
  2518  011F                     u1505:
  2519  011F  36F1               	lsrf	___awdiv@divisor+1,f
  2520  0120  0CF0               	rrf	___awdiv@divisor,f
  2521  0121  0B89               	decfsz	9,f
  2522  0122  291F               	goto	u1505
  2523  0123                     l1751:
  2524  0123  3001               	movlw	1
  2525  0124  02F5               	subwf	___awdiv@counter,f
  2526  0125  1D03               	btfss	3,2
  2527  0126  2928               	goto	u1511
  2528  0127  2929               	goto	u1510
  2529  0128                     u1511:
  2530  0128  290A               	goto	l1743
  2531  0129                     u1510:
  2532  0129                     l1753:
  2533  0129  0876               	movf	___awdiv@sign,w
  2534  012A  1903               	btfsc	3,2
  2535  012B  292D               	goto	u1521
  2536  012C  292E               	goto	u1520
  2537  012D                     u1521:
  2538  012D  2933               	goto	l1757
  2539  012E                     u1520:
  2540  012E                     l1755:
  2541  012E  09F7               	comf	___awdiv@quotient,f
  2542  012F  09F8               	comf	___awdiv@quotient+1,f
  2543  0130  0AF7               	incf	___awdiv@quotient,f
  2544  0131  1903               	skipnz
  2545  0132  0AF8               	incf	___awdiv@quotient+1,f
  2546  0133                     l1757:
  2547  0133  0878               	movf	___awdiv@quotient+1,w
  2548  0134  00F1               	movwf	?___awdiv+1
  2549  0135  0877               	movf	___awdiv@quotient,w
  2550  0136  00F0               	movwf	?___awdiv
  2551  0137                     l578:
  2552  0137  0008               	return
  2553  0138                     __end_of___awdiv:
  2554                           
  2555                           	psect	text6
  2556  0FCB                     __ptext6:	
  2557 ;; *************** function __power *****************
  2558 ;; Defined at:
  2559 ;;		line 156 in file "main.c"
  2560 ;; Parameters:    Size  Location     Type
  2561 ;;  base_num        2    0[BANK0 ] unsigned short 
  2562 ;;  exp_num         2    2[BANK0 ] unsigned short 
  2563 ;; Auto vars:     Size  Location     Type
  2564 ;;  result          1    8[BANK0 ] unsigned char 
  2565 ;; Return value:  Size  Location     Type
  2566 ;;                  4    0[BANK0 ] float 
  2567 ;; Registers used:
  2568 ;;		wreg, status,2, status,0, pclath, cstack
  2569 ;; Tracked objects:
  2570 ;;		On entry : 0/0
  2571 ;;		On exit  : 0/0
  2572 ;;		Unchanged: 0/0
  2573 ;; Data sizes:     COMMON   BANK0   BANK1   BANK2   BANK3   BANK4   BANK5   BANK6   BANK7   BANK8   BANK9  BANK10  BANK1
      +1  BANK12
  2574 ;;      Params:         0       4       0       0       0       0       0       0       0       0       0       0       
      +0       0
  2575 ;;      Locals:         0       1       0       0       0       0       0       0       0       0       0       0       
      +0       0
  2576 ;;      Temps:          0       4       0       0       0       0       0       0       0       0       0       0       
      +0       0
  2577 ;;      Totals:         0       9       0       0       0       0       0       0       0       0       0       0       
      +0       0
  2578 ;;Total ram usage:        9 bytes
  2579 ;; Hardware stack levels used:    1
  2580 ;; Hardware stack levels required when called:    1
  2581 ;; This function calls:
  2582 ;;		___bmul
  2583 ;;		___xxtofl
  2584 ;; This function is called by:
  2585 ;;		_ftoa
  2586 ;; This function uses a non-reentrant model
  2587 ;;
  2588                           
  2589                           
  2590                           ;psect for function __power
  2591  0FCB                     __power:
  2592  0FCB                     l2123:	
  2593                           ;incstack = 0
  2594                           ; Regs used in __power: [wreg+status,2+status,0+pclath+cstack]
  2595                           
  2596                           
  2597                           ;main.c: 158:     uint8_t result = 1;
  2598  0FCB  0020               	movlb	0	; select bank0
  2599  0FCC  01A8               	clrf	__power@result
  2600  0FCD  0AA8               	incf	__power@result,f
  2601                           
  2602                           ;main.c: 160:     while (exp_num > 0) {
  2603  0FCE  2FDF               	goto	l2129
  2604  0FCF                     l2125:
  2605                           
  2606                           ;main.c: 161:         result *= base_num;
  2607  0FCF  0828               	movf	__power@result,w
  2608  0FD0  00A4               	movwf	??__power
  2609  0FD1  0824               	movf	??__power,w
  2610  0FD2  00F0               	movwf	___bmul@multiplicand
  2611  0FD3  0820               	movf	__power@base_num,w
  2612  0FD4  318E  26F0  318F   	fcall	___bmul
  2613  0FD7  0020               	movlb	0	; select bank0
  2614  0FD8  00A5               	movwf	??__power+1
  2615  0FD9  0825               	movf	??__power+1,w
  2616  0FDA  00A8               	movwf	__power@result
  2617  0FDB                     l2127:
  2618                           
  2619                           ;main.c: 162:         exp_num--;
  2620  0FDB  3001               	movlw	1
  2621  0FDC  02A2               	subwf	__power@exp_num,f
  2622  0FDD  3000               	movlw	0
  2623  0FDE  3BA3               	subwfb	__power@exp_num+1,f
  2624  0FDF                     l2129:
  2625                           
  2626                           ;main.c: 160:     while (exp_num > 0) {
  2627  0FDF  0822               	movf	__power@exp_num,w
  2628  0FE0  0423               	iorwf	__power@exp_num+1,w
  2629  0FE1  1D03               	btfss	3,2
  2630  0FE2  2FE4               	goto	u2241
  2631  0FE3  2FE5               	goto	u2240
  2632  0FE4                     u2241:
  2633  0FE4  2FCF               	goto	l2125
  2634  0FE5                     u2240:
  2635  0FE5                     l2131:
  2636                           
  2637                           ;main.c: 165:     return result;
  2638  0FE5  0828               	movf	__power@result,w
  2639  0FE6  00A4               	movwf	??__power
  2640  0FE7  01A5               	clrf	??__power+1
  2641  0FE8  01A6               	clrf	??__power+2
  2642  0FE9  01A7               	clrf	??__power+3
  2643  0FEA  0827               	movf	??__power+3,w
  2644  0FEB  00F3               	movwf	___xxtofl@val+3
  2645  0FEC  0826               	movf	??__power+2,w
  2646  0FED  00F2               	movwf	___xxtofl@val+2
  2647  0FEE  0825               	movf	??__power+1,w
  2648  0FEF  00F1               	movwf	___xxtofl@val+1
  2649  0FF0  0824               	movf	??__power,w
  2650  0FF1  00F0               	movwf	___xxtofl@val
  2651  0FF2  3000               	movlw	0
  2652  0FF3  3182  22B9  318F   	fcall	___xxtofl
  2653  0FF6  0873               	movf	?___xxtofl+3,w
  2654  0FF7  0020               	movlb	0	; select bank0
  2655  0FF8  00A3               	movwf	?__power+3
  2656  0FF9  0872               	movf	?___xxtofl+2,w
  2657  0FFA  00A2               	movwf	?__power+2
  2658  0FFB  0871               	movf	?___xxtofl+1,w
  2659  0FFC  00A1               	movwf	?__power+1
  2660  0FFD  0870               	movf	?___xxtofl,w
  2661  0FFE  00A0               	movwf	?__power
  2662  0FFF                     l275:
  2663  0FFF  0008               	return
  2664  1000                     __end_of__power:
  2665                           
  2666                           	psect	text7
  2667  02B9                     __ptext7:	
  2668 ;; *************** function ___xxtofl *****************
  2669 ;; Defined at:
  2670 ;;		line 10 in file "/opt/microchip/xc8/v2.31/pic/sources/c99/common/xxtofl.c"
  2671 ;; Parameters:    Size  Location     Type
  2672 ;;  sign            1    wreg     unsigned char 
  2673 ;;  val             4    0[COMMON] long 
  2674 ;; Auto vars:     Size  Location     Type
  2675 ;;  sign            1    8[COMMON] unsigned char 
  2676 ;;  arg             4   10[COMMON] unsigned long 
  2677 ;;  exp             1    9[COMMON] unsigned char 
  2678 ;; Return value:  Size  Location     Type
  2679 ;;                  4    0[COMMON] unsigned char 
  2680 ;; Registers used:
  2681 ;;		wreg, status,2, status,0
  2682 ;; Tracked objects:
  2683 ;;		On entry : 0/0
  2684 ;;		On exit  : 0/0
  2685 ;;		Unchanged: 0/0
  2686 ;; Data sizes:     COMMON   BANK0   BANK1   BANK2   BANK3   BANK4   BANK5   BANK6   BANK7   BANK8   BANK9  BANK10  BANK1
      +1  BANK12
  2687 ;;      Params:         4       0       0       0       0       0       0       0       0       0       0       0       
      +0       0
  2688 ;;      Locals:         6       0       0       0       0       0       0       0       0       0       0       0       
      +0       0
  2689 ;;      Temps:          4       0       0       0       0       0       0       0       0       0       0       0       
      +0       0
  2690 ;;      Totals:        14       0       0       0       0       0       0       0       0       0       0       0       
      +0       0
  2691 ;;Total ram usage:       14 bytes
  2692 ;; Hardware stack levels used:    1
  2693 ;; This function calls:
  2694 ;;		Nothing
  2695 ;; This function is called by:
  2696 ;;		_ftoa
  2697 ;;		__power
  2698 ;; This function uses a non-reentrant model
  2699 ;;
  2700                           
  2701                           
  2702                           ;psect for function ___xxtofl
  2703  02B9                     ___xxtofl:
  2704                           
  2705                           ;incstack = 0
  2706                           ; Regs used in ___xxtofl: [wreg+status,2+status,0]
  2707                           ;___xxtofl@sign stored from wreg
  2708  02B9  00F8               	movwf	___xxtofl@sign
  2709  02BA                     l2007:
  2710  02BA  0878               	movf	___xxtofl@sign,w
  2711  02BB  1903               	btfsc	3,2
  2712  02BC  2ABE               	goto	u2081
  2713  02BD  2ABF               	goto	u2080
  2714  02BE                     u2081:
  2715  02BE  2AD3               	goto	l2013
  2716  02BF                     u2080:
  2717  02BF                     l2009:
  2718  02BF  1FF3               	btfss	___xxtofl@val+3,7
  2719  02C0  2AC2               	goto	u2091
  2720  02C1  2AC3               	goto	u2090
  2721  02C2                     u2091:
  2722  02C2  2AD3               	goto	l2013
  2723  02C3                     u2090:
  2724  02C3                     l2011:
  2725  02C3  0970               	comf	___xxtofl@val,w
  2726  02C4  00FA               	movwf	___xxtofl@arg
  2727  02C5  0971               	comf	___xxtofl@val+1,w
  2728  02C6  00FB               	movwf	___xxtofl@arg+1
  2729  02C7  0972               	comf	___xxtofl@val+2,w
  2730  02C8  00FC               	movwf	___xxtofl@arg+2
  2731  02C9  0973               	comf	___xxtofl@val+3,w
  2732  02CA  00FD               	movwf	___xxtofl@arg+3
  2733  02CB  0AFA               	incf	___xxtofl@arg,f
  2734  02CC  1903               	skipnz
  2735  02CD  0AFB               	incf	___xxtofl@arg+1,f
  2736  02CE  1903               	skipnz
  2737  02CF  0AFC               	incf	___xxtofl@arg+2,f
  2738  02D0  1903               	skipnz
  2739  02D1  0AFD               	incf	___xxtofl@arg+3,f
  2740  02D2  2ADB               	goto	l866
  2741  02D3                     l2013:
  2742  02D3  0873               	movf	___xxtofl@val+3,w
  2743  02D4  00FD               	movwf	___xxtofl@arg+3
  2744  02D5  0872               	movf	___xxtofl@val+2,w
  2745  02D6  00FC               	movwf	___xxtofl@arg+2
  2746  02D7  0871               	movf	___xxtofl@val+1,w
  2747  02D8  00FB               	movwf	___xxtofl@arg+1
  2748  02D9  0870               	movf	___xxtofl@val,w
  2749  02DA  00FA               	movwf	___xxtofl@arg
  2750  02DB                     l866:
  2751  02DB  0873               	movf	___xxtofl@val+3,w
  2752  02DC  0472               	iorwf	___xxtofl@val+2,w
  2753  02DD  0471               	iorwf	___xxtofl@val+1,w
  2754  02DE  0470               	iorwf	___xxtofl@val,w
  2755  02DF  1D03               	skipz
  2756  02E0  2AE2               	goto	u2101
  2757  02E1  2AE3               	goto	u2100
  2758  02E2                     u2101:
  2759  02E2  2AEC               	goto	l2019
  2760  02E3                     u2100:
  2761  02E3                     l2015:
  2762  02E3  3000               	movlw	0
  2763  02E4  00F3               	movwf	?___xxtofl+3
  2764  02E5  3000               	movlw	0
  2765  02E6  00F2               	movwf	?___xxtofl+2
  2766  02E7  3000               	movlw	0
  2767  02E8  00F1               	movwf	?___xxtofl+1
  2768  02E9  3000               	movlw	0
  2769  02EA  00F0               	movwf	?___xxtofl
  2770  02EB  2B64               	goto	l868
  2771  02EC                     l2019:
  2772  02EC  3096               	movlw	150
  2773  02ED  00F4               	movwf	??___xxtofl
  2774  02EE  0874               	movf	??___xxtofl,w
  2775  02EF  00F9               	movwf	___xxtofl@exp
  2776  02F0  2AFC               	goto	l2023
  2777  02F1                     l2021:
  2778  02F1  3001               	movlw	1
  2779  02F2  00F4               	movwf	??___xxtofl
  2780  02F3  0874               	movf	??___xxtofl,w
  2781  02F4  07F9               	addwf	___xxtofl@exp,f
  2782  02F5  3001               	movlw	1
  2783  02F6                     u2115:
  2784  02F6  36FD               	lsrf	___xxtofl@arg+3,f
  2785  02F7  0CFC               	rrf	___xxtofl@arg+2,f
  2786  02F8  0CFB               	rrf	___xxtofl@arg+1,f
  2787  02F9  0CFA               	rrf	___xxtofl@arg,f
  2788  02FA  0B89               	decfsz	9,f
  2789  02FB  2AF6               	goto	u2115
  2790  02FC                     l2023:
  2791  02FC  30FE               	movlw	254
  2792  02FD  057D               	andwf	___xxtofl@arg+3,w
  2793  02FE  1D03               	btfss	3,2
  2794  02FF  2B01               	goto	u2121
  2795  0300  2B02               	goto	u2120
  2796  0301                     u2121:
  2797  0301  2AF1               	goto	l2021
  2798  0302                     u2120:
  2799  0302  2B16               	goto	l872
  2800  0303                     l2025:
  2801  0303  3001               	movlw	1
  2802  0304  00F4               	movwf	??___xxtofl
  2803  0305  0874               	movf	??___xxtofl,w
  2804  0306  07F9               	addwf	___xxtofl@exp,f
  2805  0307                     l2027:
  2806  0307  3001               	movlw	1
  2807  0308  07FA               	addwf	___xxtofl@arg,f
  2808  0309  3000               	movlw	0
  2809  030A  3DFB               	addwfc	___xxtofl@arg+1,f
  2810  030B  3000               	movlw	0
  2811  030C  3DFC               	addwfc	___xxtofl@arg+2,f
  2812  030D  3000               	movlw	0
  2813  030E  3DFD               	addwfc	___xxtofl@arg+3,f
  2814  030F                     l2029:
  2815  030F  3001               	movlw	1
  2816  0310                     u2135:
  2817  0310  36FD               	lsrf	___xxtofl@arg+3,f
  2818  0311  0CFC               	rrf	___xxtofl@arg+2,f
  2819  0312  0CFB               	rrf	___xxtofl@arg+1,f
  2820  0313  0CFA               	rrf	___xxtofl@arg,f
  2821  0314  0B89               	decfsz	9,f
  2822  0315  2B10               	goto	u2135
  2823  0316                     l872:
  2824  0316  30FF               	movlw	255
  2825  0317  057D               	andwf	___xxtofl@arg+3,w
  2826  0318  1D03               	btfss	3,2
  2827  0319  2B1B               	goto	u2141
  2828  031A  2B1C               	goto	u2140
  2829  031B                     u2141:
  2830  031B  2B03               	goto	l2025
  2831  031C                     u2140:
  2832  031C  2B26               	goto	l2033
  2833  031D                     l2031:
  2834  031D  3001               	movlw	1
  2835  031E  02F9               	subwf	___xxtofl@exp,f
  2836  031F  3001               	movlw	1
  2837  0320                     u2155:
  2838  0320  35FA               	lslf	___xxtofl@arg,f
  2839  0321  0DFB               	rlf	___xxtofl@arg+1,f
  2840  0322  0DFC               	rlf	___xxtofl@arg+2,f
  2841  0323  0DFD               	rlf	___xxtofl@arg+3,f
  2842  0324  0B89               	decfsz	9,f
  2843  0325  2B20               	goto	u2155
  2844  0326                     l2033:
  2845  0326  1BFC               	btfsc	___xxtofl@arg+2,7
  2846  0327  2B29               	goto	u2161
  2847  0328  2B2A               	goto	u2160
  2848  0329                     u2161:
  2849  0329  2B30               	goto	l879
  2850  032A                     u2160:
  2851  032A                     l2035:
  2852  032A  3002               	movlw	2
  2853  032B  0279               	subwf	___xxtofl@exp,w
  2854  032C  1803               	skipnc
  2855  032D  2B2F               	goto	u2171
  2856  032E  2B30               	goto	u2170
  2857  032F                     u2171:
  2858  032F  2B1D               	goto	l2031
  2859  0330                     u2170:
  2860  0330                     l879:
  2861  0330  1879               	btfsc	___xxtofl@exp,0
  2862  0331  2B33               	goto	u2181
  2863  0332  2B34               	goto	u2180
  2864  0333                     u2181:
  2865  0333  2B3C               	goto	l880
  2866  0334                     u2180:
  2867  0334                     l2037:
  2868  0334  30FF               	movlw	255
  2869  0335  05FA               	andwf	___xxtofl@arg,f
  2870  0336  30FF               	movlw	255
  2871  0337  05FB               	andwf	___xxtofl@arg+1,f
  2872  0338  307F               	movlw	127
  2873  0339  05FC               	andwf	___xxtofl@arg+2,f
  2874  033A  30FF               	movlw	255
  2875  033B  05FD               	andwf	___xxtofl@arg+3,f
  2876  033C                     l880:
  2877  033C  1003               	clrc
  2878  033D  0CF9               	rrf	___xxtofl@exp,f
  2879  033E                     l2039:
  2880  033E  0879               	movf	___xxtofl@exp,w
  2881  033F  00F4               	movwf	??___xxtofl
  2882  0340  01F5               	clrf	??___xxtofl+1
  2883  0341  01F6               	clrf	??___xxtofl+2
  2884  0342  01F7               	clrf	??___xxtofl+3
  2885  0343  3018               	movlw	24
  2886  0344                     u2195:
  2887  0344  35F4               	lslf	??___xxtofl,f
  2888  0345  0DF5               	rlf	??___xxtofl+1,f
  2889  0346  0DF6               	rlf	??___xxtofl+2,f
  2890  0347  0DF7               	rlf	??___xxtofl+3,f
  2891  0348                     u2190:
  2892  0348  0B89               	decfsz	9,f
  2893  0349  2B44               	goto	u2195
  2894  034A  0874               	movf	??___xxtofl,w
  2895  034B  04FA               	iorwf	___xxtofl@arg,f
  2896  034C  0875               	movf	??___xxtofl+1,w
  2897  034D  04FB               	iorwf	___xxtofl@arg+1,f
  2898  034E  0876               	movf	??___xxtofl+2,w
  2899  034F  04FC               	iorwf	___xxtofl@arg+2,f
  2900  0350  0877               	movf	??___xxtofl+3,w
  2901  0351  04FD               	iorwf	___xxtofl@arg+3,f
  2902  0352                     l2041:
  2903  0352  0878               	movf	___xxtofl@sign,w
  2904  0353  1903               	btfsc	3,2
  2905  0354  2B56               	goto	u2201
  2906  0355  2B57               	goto	u2200
  2907  0356                     u2201:
  2908  0356  2B5C               	goto	l2047
  2909  0357                     u2200:
  2910  0357                     l2043:
  2911  0357  1FF3               	btfss	___xxtofl@val+3,7
  2912  0358  2B5A               	goto	u2211
  2913  0359  2B5B               	goto	u2210
  2914  035A                     u2211:
  2915  035A  2B5C               	goto	l2047
  2916  035B                     u2210:
  2917  035B                     l2045:
  2918  035B  17FD               	bsf	___xxtofl@arg+3,7
  2919  035C                     l2047:
  2920  035C  087D               	movf	___xxtofl@arg+3,w
  2921  035D  00F3               	movwf	?___xxtofl+3
  2922  035E  087C               	movf	___xxtofl@arg+2,w
  2923  035F  00F2               	movwf	?___xxtofl+2
  2924  0360  087B               	movf	___xxtofl@arg+1,w
  2925  0361  00F1               	movwf	?___xxtofl+1
  2926  0362  087A               	movf	___xxtofl@arg,w
  2927  0363  00F0               	movwf	?___xxtofl
  2928  0364                     l868:
  2929  0364  0008               	return
  2930  0365                     __end_of___xxtofl:
  2931                           
  2932                           	psect	text8
  2933  0EF0                     __ptext8:	
  2934 ;; *************** function ___bmul *****************
  2935 ;; Defined at:
  2936 ;;		line 4 in file "/opt/microchip/xc8/v2.31/pic/sources/c99/common/Umul8.c"
  2937 ;; Parameters:    Size  Location     Type
  2938 ;;  multiplier      1    wreg     unsigned char 
  2939 ;;  multiplicand    1    0[COMMON] unsigned char 
  2940 ;; Auto vars:     Size  Location     Type
  2941 ;;  multiplier      1    3[COMMON] unsigned char 
  2942 ;;  product         1    2[COMMON] unsigned char 
  2943 ;; Return value:  Size  Location     Type
  2944 ;;                  1    wreg      unsigned char 
  2945 ;; Registers used:
  2946 ;;		wreg, status,2, status,0
  2947 ;; Tracked objects:
  2948 ;;		On entry : 0/0
  2949 ;;		On exit  : 0/0
  2950 ;;		Unchanged: 0/0
  2951 ;; Data sizes:     COMMON   BANK0   BANK1   BANK2   BANK3   BANK4   BANK5   BANK6   BANK7   BANK8   BANK9  BANK10  BANK1
      +1  BANK12
  2952 ;;      Params:         1       0       0       0       0       0       0       0       0       0       0       0       
      +0       0
  2953 ;;      Locals:         2       0       0       0       0       0       0       0       0       0       0       0       
      +0       0
  2954 ;;      Temps:          1       0       0       0       0       0       0       0       0       0       0       0       
      +0       0
  2955 ;;      Totals:         4       0       0       0       0       0       0       0       0       0       0       0       
      +0       0
  2956 ;;Total ram usage:        4 bytes
  2957 ;; Hardware stack levels used:    1
  2958 ;; This function calls:
  2959 ;;		Nothing
  2960 ;; This function is called by:
  2961 ;;		__power
  2962 ;; This function uses a non-reentrant model
  2963 ;;
  2964                           
  2965                           
  2966                           ;psect for function ___bmul
  2967  0EF0                     ___bmul:
  2968                           
  2969                           ;incstack = 0
  2970                           ; Regs used in ___bmul: [wreg+status,2+status,0]
  2971                           ;___bmul@multiplier stored from wreg
  2972  0EF0  00F3               	movwf	___bmul@multiplier
  2973  0EF1                     l1703:
  2974  0EF1  01F2               	clrf	___bmul@product
  2975  0EF2                     l1705:
  2976  0EF2  1C73               	btfss	___bmul@multiplier,0
  2977  0EF3  2EF5               	goto	u1411
  2978  0EF4  2EF6               	goto	u1410
  2979  0EF5                     u1411:
  2980  0EF5  2EFA               	goto	l1709
  2981  0EF6                     u1410:
  2982  0EF6                     l1707:
  2983  0EF6  0870               	movf	___bmul@multiplicand,w
  2984  0EF7  00F1               	movwf	??___bmul
  2985  0EF8  0871               	movf	??___bmul,w
  2986  0EF9  07F2               	addwf	___bmul@product,f
  2987  0EFA                     l1709:
  2988  0EFA  1003               	clrc
  2989  0EFB  0DF0               	rlf	___bmul@multiplicand,f
  2990  0EFC                     l1711:
  2991  0EFC  1003               	clrc
  2992  0EFD  0CF3               	rrf	___bmul@multiplier,f
  2993  0EFE  0873               	movf	___bmul@multiplier,w
  2994  0EFF  1D03               	btfss	3,2
  2995  0F00  2F02               	goto	u1421
  2996  0F01  2F03               	goto	u1420
  2997  0F02                     u1421:
  2998  0F02  2EF2               	goto	l1705
  2999  0F03                     u1420:
  3000  0F03                     l1713:
  3001  0F03  0872               	movf	___bmul@product,w
  3002  0F04                     l451:
  3003  0F04  0008               	return
  3004  0F05                     __end_of___bmul:
  3005                           
  3006                           	psect	text9
  3007  01A1                     __ptext9:	
  3008 ;; *************** function ___fltol *****************
  3009 ;; Defined at:
  3010 ;;		line 43 in file "/opt/microchip/xc8/v2.31/pic/sources/c99/common/fltol.c"
  3011 ;; Parameters:    Size  Location     Type
  3012 ;;  f1              4    0[COMMON] unsigned char 
  3013 ;; Auto vars:     Size  Location     Type
  3014 ;;  exp1            1   10[COMMON] unsigned char 
  3015 ;;  sign1           1    9[COMMON] unsigned char 
  3016 ;; Return value:  Size  Location     Type
  3017 ;;                  4    0[COMMON] long 
  3018 ;; Registers used:
  3019 ;;		wreg, status,2, status,0
  3020 ;; Tracked objects:
  3021 ;;		On entry : 0/0
  3022 ;;		On exit  : 0/0
  3023 ;;		Unchanged: 0/0
  3024 ;; Data sizes:     COMMON   BANK0   BANK1   BANK2   BANK3   BANK4   BANK5   BANK6   BANK7   BANK8   BANK9  BANK10  BANK1
      +1  BANK12
  3025 ;;      Params:         4       0       0       0       0       0       0       0       0       0       0       0       
      +0       0
  3026 ;;      Locals:         2       0       0       0       0       0       0       0       0       0       0       0       
      +0       0
  3027 ;;      Temps:          5       0       0       0       0       0       0       0       0       0       0       0       
      +0       0
  3028 ;;      Totals:        11       0       0       0       0       0       0       0       0       0       0       0       
      +0       0
  3029 ;;Total ram usage:       11 bytes
  3030 ;; Hardware stack levels used:    1
  3031 ;; This function calls:
  3032 ;;		Nothing
  3033 ;; This function is called by:
  3034 ;;		_ftoa
  3035 ;; This function uses a non-reentrant model
  3036 ;;
  3037                           
  3038                           
  3039                           ;psect for function ___fltol
  3040  01A1                     ___fltol:
  3041  01A1                     l2149:	
  3042                           ;incstack = 0
  3043                           ; Regs used in ___fltol: [wreg+status,2+status,0]
  3044                           
  3045  01A1  1003               	clrc
  3046  01A2  0D72               	rlf	___fltol@f1+2,w
  3047  01A3  0D73               	rlf	___fltol@f1+3,w
  3048  01A4  00F4               	movwf	??___fltol
  3049  01A5  0874               	movf	??___fltol,w
  3050  01A6  00FA               	movwf	___fltol@exp1
  3051  01A7  087A               	movf	___fltol@exp1,w
  3052  01A8  1D03               	btfss	3,2
  3053  01A9  29AB               	goto	u2271
  3054  01AA  29AC               	goto	u2270
  3055  01AB                     u2271:
  3056  01AB  29B5               	goto	l2155
  3057  01AC                     u2270:
  3058  01AC                     l2151:
  3059  01AC  3000               	movlw	0
  3060  01AD  00F3               	movwf	?___fltol+3
  3061  01AE  3000               	movlw	0
  3062  01AF  00F2               	movwf	?___fltol+2
  3063  01B0  3000               	movlw	0
  3064  01B1  00F1               	movwf	?___fltol+1
  3065  01B2  3000               	movlw	0
  3066  01B3  00F0               	movwf	?___fltol
  3067  01B4  2A14               	goto	l619
  3068  01B5                     l2155:
  3069  01B5  0870               	movf	___fltol@f1,w
  3070  01B6  00F4               	movwf	??___fltol
  3071  01B7  0871               	movf	___fltol@f1+1,w
  3072  01B8  00F5               	movwf	??___fltol+1
  3073  01B9  0872               	movf	___fltol@f1+2,w
  3074  01BA  00F6               	movwf	??___fltol+2
  3075  01BB  0873               	movf	___fltol@f1+3,w
  3076  01BC  00F7               	movwf	??___fltol+3
  3077  01BD  301F               	movlw	31
  3078  01BE                     u2285:
  3079  01BE  36F7               	lsrf	??___fltol+3,f
  3080  01BF  0CF6               	rrf	??___fltol+2,f
  3081  01C0  0CF5               	rrf	??___fltol+1,f
  3082  01C1  0CF4               	rrf	??___fltol,f
  3083  01C2                     u2280:
  3084  01C2  0B89               	decfsz	9,f
  3085  01C3  29BE               	goto	u2285
  3086  01C4  0874               	movf	??___fltol,w
  3087  01C5  00F8               	movwf	??___fltol+4
  3088  01C6  0878               	movf	??___fltol+4,w
  3089  01C7  00F9               	movwf	___fltol@sign1
  3090  01C8                     l2157:
  3091  01C8  17F2               	bsf	___fltol@f1+2,7
  3092  01C9                     l2159:
  3093  01C9  30FF               	movlw	255
  3094  01CA  05F0               	andwf	___fltol@f1,f
  3095  01CB  30FF               	movlw	255
  3096  01CC  05F1               	andwf	___fltol@f1+1,f
  3097  01CD  30FF               	movlw	255
  3098  01CE  05F2               	andwf	___fltol@f1+2,f
  3099  01CF  3000               	movlw	0
  3100  01D0  05F3               	andwf	___fltol@f1+3,f
  3101  01D1                     l2161:
  3102  01D1  3096               	movlw	150
  3103  01D2  02FA               	subwf	___fltol@exp1,f
  3104  01D3                     l2163:
  3105  01D3  1FFA               	btfss	___fltol@exp1,7
  3106  01D4  29D6               	goto	u2291
  3107  01D5  29D7               	goto	u2290
  3108  01D6                     u2291:
  3109  01D6  29EF               	goto	l2173
  3110  01D7                     u2290:
  3111  01D7                     l2165:
  3112  01D7  087A               	movf	___fltol@exp1,w
  3113  01D8  3A80               	xorlw	128
  3114  01D9  3E97               	addlw	151
  3115  01DA  1803               	skipnc
  3116  01DB  29DD               	goto	u2301
  3117  01DC  29DE               	goto	u2300
  3118  01DD                     u2301:
  3119  01DD  29DF               	goto	l2171
  3120  01DE                     u2300:
  3121  01DE  29AC               	goto	l2151
  3122  01DF                     l2171:
  3123  01DF  3001               	movlw	1
  3124  01E0                     u2315:
  3125  01E0  36F3               	lsrf	___fltol@f1+3,f
  3126  01E1  0CF2               	rrf	___fltol@f1+2,f
  3127  01E2  0CF1               	rrf	___fltol@f1+1,f
  3128  01E3  0CF0               	rrf	___fltol@f1,f
  3129  01E4  0B89               	decfsz	9,f
  3130  01E5  29E0               	goto	u2315
  3131  01E6  3001               	movlw	1
  3132  01E7  00F4               	movwf	??___fltol
  3133  01E8  0874               	movf	??___fltol,w
  3134  01E9  07FA               	addwf	___fltol@exp1,f
  3135  01EA  1D03               	btfss	3,2
  3136  01EB  29ED               	goto	u2321
  3137  01EC  29EE               	goto	u2320
  3138  01ED                     u2321:
  3139  01ED  29DF               	goto	l2171
  3140  01EE                     u2320:
  3141  01EE  2A04               	goto	l2181
  3142  01EF                     l2173:
  3143  01EF  3020               	movlw	32
  3144  01F0  027A               	subwf	___fltol@exp1,w
  3145  01F1  1C03               	skipc
  3146  01F2  29F4               	goto	u2331
  3147  01F3  29F5               	goto	u2330
  3148  01F4                     u2331:
  3149  01F4  29FF               	goto	l626
  3150  01F5                     u2330:
  3151  01F5  29AC               	goto	l2151
  3152  01F6                     l2179:
  3153  01F6  3001               	movlw	1
  3154  01F7                     u2345:
  3155  01F7  35F0               	lslf	___fltol@f1,f
  3156  01F8  0DF1               	rlf	___fltol@f1+1,f
  3157  01F9  0DF2               	rlf	___fltol@f1+2,f
  3158  01FA  0DF3               	rlf	___fltol@f1+3,f
  3159  01FB  0B89               	decfsz	9,f
  3160  01FC  29F7               	goto	u2345
  3161  01FD  3001               	movlw	1
  3162  01FE  02FA               	subwf	___fltol@exp1,f
  3163  01FF                     l626:
  3164  01FF  087A               	movf	___fltol@exp1,w
  3165  0200  1D03               	btfss	3,2
  3166  0201  2A03               	goto	u2351
  3167  0202  2A04               	goto	u2350
  3168  0203                     u2351:
  3169  0203  29F6               	goto	l2179
  3170  0204                     u2350:
  3171  0204                     l2181:
  3172  0204  0879               	movf	___fltol@sign1,w
  3173  0205  1903               	btfsc	3,2
  3174  0206  2A08               	goto	u2361
  3175  0207  2A09               	goto	u2360
  3176  0208                     u2361:
  3177  0208  2A14               	goto	l629
  3178  0209                     u2360:
  3179  0209                     l2183:
  3180  0209  09F0               	comf	___fltol@f1,f
  3181  020A  09F1               	comf	___fltol@f1+1,f
  3182  020B  09F2               	comf	___fltol@f1+2,f
  3183  020C  09F3               	comf	___fltol@f1+3,f
  3184  020D  0AF0               	incf	___fltol@f1,f
  3185  020E  1903               	skipnz
  3186  020F  0AF1               	incf	___fltol@f1+1,f
  3187  0210  1903               	skipnz
  3188  0211  0AF2               	incf	___fltol@f1+2,f
  3189  0212  1903               	skipnz
  3190  0213  0AF3               	incf	___fltol@f1+3,f
  3191  0214                     l629:
  3192  0214                     l619:
  3193  0214  0008               	return
  3194  0215                     __end_of___fltol:
  3195                           
  3196                           	psect	text10
  3197  0F39                     __ptext10:	
  3198 ;; *************** function ___flsub *****************
  3199 ;; Defined at:
  3200 ;;		line 242 in file "/opt/microchip/xc8/v2.31/pic/sources/c99/common/sprcadd.c"
  3201 ;; Parameters:    Size  Location     Type
  3202 ;;  a               4    8[BANK0 ] long 
  3203 ;;  b               4   12[BANK0 ] long 
  3204 ;; Auto vars:     Size  Location     Type
  3205 ;;		None
  3206 ;; Return value:  Size  Location     Type
  3207 ;;                  4    8[BANK0 ] long 
  3208 ;; Registers used:
  3209 ;;		wreg, status,2, status,0, pclath, cstack
  3210 ;; Tracked objects:
  3211 ;;		On entry : 0/0
  3212 ;;		On exit  : 0/0
  3213 ;;		Unchanged: 0/0
  3214 ;; Data sizes:     COMMON   BANK0   BANK1   BANK2   BANK3   BANK4   BANK5   BANK6   BANK7   BANK8   BANK9  BANK10  BANK1
      +1  BANK12
  3215 ;;      Params:         0       8       0       0       0       0       0       0       0       0       0       0       
      +0       0
  3216 ;;      Locals:         0       0       0       0       0       0       0       0       0       0       0       0       
      +0       0
  3217 ;;      Temps:          0       0       0       0       0       0       0       0       0       0       0       0       
      +0       0
  3218 ;;      Totals:         0       8       0       0       0       0       0       0       0       0       0       0       
      +0       0
  3219 ;;Total ram usage:        8 bytes
  3220 ;; Hardware stack levels used:    1
  3221 ;; Hardware stack levels required when called:    1
  3222 ;; This function calls:
  3223 ;;		___fladd
  3224 ;; This function is called by:
  3225 ;;		_ftoa
  3226 ;; This function uses a non-reentrant model
  3227 ;;
  3228                           
  3229                           
  3230                           ;psect for function ___flsub
  3231  0F39                     ___flsub:
  3232  0F39                     l2185:	
  3233                           ;incstack = 0
  3234                           ; Regs used in ___flsub: [wreg+status,2+status,0+pclath+cstack]
  3235                           
  3236  0F39  3080               	movlw	128
  3237  0F3A  0020               	movlb	0	; select bank0
  3238  0F3B  06AB               	xorwf	___flsub@a+3,f
  3239  0F3C                     l2187:
  3240  0F3C  082F               	movf	___flsub@b+3,w
  3241  0F3D  00F3               	movwf	___fladd@b+3
  3242  0F3E  082E               	movf	___flsub@b+2,w
  3243  0F3F  00F2               	movwf	___fladd@b+2
  3244  0F40  082D               	movf	___flsub@b+1,w
  3245  0F41  00F1               	movwf	___fladd@b+1
  3246  0F42  082C               	movf	___flsub@b,w
  3247  0F43  00F0               	movwf	___fladd@b
  3248  0F44  082B               	movf	___flsub@a+3,w
  3249  0F45  00F7               	movwf	___fladd@a+3
  3250  0F46  082A               	movf	___flsub@a+2,w
  3251  0F47  00F6               	movwf	___fladd@a+2
  3252  0F48  0829               	movf	___flsub@a+1,w
  3253  0F49  00F5               	movwf	___fladd@a+1
  3254  0F4A  0828               	movf	___flsub@a,w
  3255  0F4B  00F4               	movwf	___fladd@a
  3256  0F4C  3183  2365  318F   	fcall	___fladd
  3257  0F4F  0873               	movf	?___fladd+3,w
  3258  0F50  0020               	movlb	0	; select bank0
  3259  0F51  00AB               	movwf	?___flsub+3
  3260  0F52  0872               	movf	?___fladd+2,w
  3261  0F53  00AA               	movwf	?___flsub+2
  3262  0F54  0871               	movf	?___fladd+1,w
  3263  0F55  00A9               	movwf	?___flsub+1
  3264  0F56  0870               	movf	?___fladd,w
  3265  0F57  00A8               	movwf	?___flsub
  3266  0F58                     l772:
  3267  0F58  0008               	return
  3268  0F59                     __end_of___flsub:
  3269                           
  3270                           	psect	text11
  3271  0365                     __ptext11:	
  3272 ;; *************** function ___fladd *****************
  3273 ;; Defined at:
  3274 ;;		line 10 in file "/opt/microchip/xc8/v2.31/pic/sources/c99/common/sprcadd.c"
  3275 ;; Parameters:    Size  Location     Type
  3276 ;;  b               4    0[COMMON] long 
  3277 ;;  a               4    4[COMMON] long 
  3278 ;; Auto vars:     Size  Location     Type
  3279 ;;  grs             1   11[COMMON] unsigned char 
  3280 ;;  bexp            1   10[COMMON] unsigned char 
  3281 ;;  aexp            1    9[COMMON] unsigned char 
  3282 ;;  signs           1    8[COMMON] unsigned char 
  3283 ;; Return value:  Size  Location     Type
  3284 ;;                  4    0[COMMON] unsigned char 
  3285 ;; Registers used:
  3286 ;;		wreg, status,2, status,0
  3287 ;; Tracked objects:
  3288 ;;		On entry : 0/0
  3289 ;;		On exit  : 0/0
  3290 ;;		Unchanged: 0/0
  3291 ;; Data sizes:     COMMON   BANK0   BANK1   BANK2   BANK3   BANK4   BANK5   BANK6   BANK7   BANK8   BANK9  BANK10  BANK1
      +1  BANK12
  3292 ;;      Params:         8       0       0       0       0       0       0       0       0       0       0       0       
      +0       0
  3293 ;;      Locals:         4       0       0       0       0       0       0       0       0       0       0       0       
      +0       0
  3294 ;;      Temps:          0       8       0       0       0       0       0       0       0       0       0       0       
      +0       0
  3295 ;;      Totals:        12       8       0       0       0       0       0       0       0       0       0       0       
      +0       0
  3296 ;;Total ram usage:       20 bytes
  3297 ;; Hardware stack levels used:    1
  3298 ;; This function calls:
  3299 ;;		Nothing
  3300 ;; This function is called by:
  3301 ;;		___flsub
  3302 ;; This function uses a non-reentrant model
  3303 ;;
  3304                           
  3305                           
  3306                           ;psect for function ___fladd
  3307  0365                     ___fladd:
  3308  0365                     l1799:	
  3309                           ;incstack = 0
  3310                           ; Regs used in ___fladd: [wreg+status,2+status,0]
  3311                           
  3312  0365  0873               	movf	___fladd@b+3,w
  3313  0366  3980               	andlw	128
  3314  0367  0020               	movlb	0	; select bank0
  3315  0368  00A0               	movwf	??___fladd
  3316  0369  0820               	movf	??___fladd,w
  3317  036A  00F8               	movwf	___fladd@signs
  3318  036B                     l1801:
  3319  036B  3573               	lslf	___fladd@b+3,w
  3320  036C  00A0               	movwf	??___fladd
  3321  036D  0820               	movf	??___fladd,w
  3322  036E  00FA               	movwf	___fladd@bexp
  3323  036F                     l1803:
  3324  036F  1FF2               	btfss	___fladd@b+2,7
  3325  0370  2B72               	goto	u1621
  3326  0371  2B73               	goto	u1620
  3327  0372                     u1621:
  3328  0372  2B74               	goto	l1807
  3329  0373                     u1620:
  3330  0373                     l1805:
  3331  0373  147A               	bsf	___fladd@bexp,0
  3332  0374                     l1807:
  3333  0374  087A               	movf	___fladd@bexp,w
  3334  0375  1903               	btfsc	3,2
  3335  0376  2B78               	goto	u1631
  3336  0377  2B79               	goto	u1630
  3337  0378                     u1631:
  3338  0378  2B89               	goto	l1817
  3339  0379                     u1630:
  3340  0379                     l1809:
  3341  0379  0A7A               	incf	___fladd@bexp,w
  3342  037A  1D03               	btfss	3,2
  3343  037B  2B7D               	goto	u1641
  3344  037C  2B7E               	goto	u1640
  3345  037D                     u1641:
  3346  037D  2B86               	goto	l1813
  3347  037E                     u1640:
  3348  037E                     l1811:
  3349  037E  3000               	movlw	0
  3350  037F  00F3               	movwf	___fladd@b+3
  3351  0380  3000               	movlw	0
  3352  0381  00F2               	movwf	___fladd@b+2
  3353  0382  3000               	movlw	0
  3354  0383  00F1               	movwf	___fladd@b+1
  3355  0384  3000               	movlw	0
  3356  0385  00F0               	movwf	___fladd@b
  3357  0386                     l1813:
  3358  0386  17F2               	bsf	___fladd@b+2,7
  3359  0387                     l1815:
  3360  0387  01F3               	clrf	___fladd@b+3
  3361  0388  2B91               	goto	l1819
  3362  0389                     l1817:
  3363  0389  3000               	movlw	0
  3364  038A  00F3               	movwf	___fladd@b+3
  3365  038B  3000               	movlw	0
  3366  038C  00F2               	movwf	___fladd@b+2
  3367  038D  3000               	movlw	0
  3368  038E  00F1               	movwf	___fladd@b+1
  3369  038F  3000               	movlw	0
  3370  0390  00F0               	movwf	___fladd@b
  3371  0391                     l1819:
  3372  0391  0877               	movf	___fladd@a+3,w
  3373  0392  3980               	andlw	128
  3374  0393  00A0               	movwf	??___fladd
  3375  0394  0820               	movf	??___fladd,w
  3376  0395  00F9               	movwf	___fladd@aexp
  3377  0396                     l1821:
  3378  0396  0879               	movf	___fladd@aexp,w
  3379  0397  0678               	xorwf	___fladd@signs,w
  3380  0398  1903               	skipnz
  3381  0399  2B9B               	goto	u1651
  3382  039A  2B9C               	goto	u1650
  3383  039B                     u1651:
  3384  039B  2B9D               	goto	l1825
  3385  039C                     u1650:
  3386  039C                     l1823:
  3387  039C  1778               	bsf	___fladd@signs,6
  3388  039D                     l1825:
  3389  039D  3577               	lslf	___fladd@a+3,w
  3390  039E  00A0               	movwf	??___fladd
  3391  039F  0820               	movf	??___fladd,w
  3392  03A0  00F9               	movwf	___fladd@aexp
  3393  03A1                     l1827:
  3394  03A1  1FF6               	btfss	___fladd@a+2,7
  3395  03A2  2BA4               	goto	u1661
  3396  03A3  2BA5               	goto	u1660
  3397  03A4                     u1661:
  3398  03A4  2BA6               	goto	l1831
  3399  03A5                     u1660:
  3400  03A5                     l1829:
  3401  03A5  1479               	bsf	___fladd@aexp,0
  3402  03A6                     l1831:
  3403  03A6  0879               	movf	___fladd@aexp,w
  3404  03A7  1903               	btfsc	3,2
  3405  03A8  2BAA               	goto	u1671
  3406  03A9  2BAB               	goto	u1670
  3407  03AA                     u1671:
  3408  03AA  2BBB               	goto	l1841
  3409  03AB                     u1670:
  3410  03AB                     l1833:
  3411  03AB  0A79               	incf	___fladd@aexp,w
  3412  03AC  1D03               	btfss	3,2
  3413  03AD  2BAF               	goto	u1681
  3414  03AE  2BB0               	goto	u1680
  3415  03AF                     u1681:
  3416  03AF  2BB8               	goto	l1837
  3417  03B0                     u1680:
  3418  03B0                     l1835:
  3419  03B0  3000               	movlw	0
  3420  03B1  00F7               	movwf	___fladd@a+3
  3421  03B2  3000               	movlw	0
  3422  03B3  00F6               	movwf	___fladd@a+2
  3423  03B4  3000               	movlw	0
  3424  03B5  00F5               	movwf	___fladd@a+1
  3425  03B6  3000               	movlw	0
  3426  03B7  00F4               	movwf	___fladd@a
  3427  03B8                     l1837:
  3428  03B8  17F6               	bsf	___fladd@a+2,7
  3429  03B9                     l1839:
  3430  03B9  01F7               	clrf	___fladd@a+3
  3431  03BA  2BC3               	goto	l726
  3432  03BB                     l1841:
  3433  03BB  3000               	movlw	0
  3434  03BC  00F7               	movwf	___fladd@a+3
  3435  03BD  3000               	movlw	0
  3436  03BE  00F6               	movwf	___fladd@a+2
  3437  03BF  3000               	movlw	0
  3438  03C0  00F5               	movwf	___fladd@a+1
  3439  03C1  3000               	movlw	0
  3440  03C2  00F4               	movwf	___fladd@a
  3441  03C3                     l726:
  3442  03C3  087A               	movf	___fladd@bexp,w
  3443  03C4  0279               	subwf	___fladd@aexp,w
  3444  03C5  1803               	skipnc
  3445  03C6  2BC8               	goto	u1691
  3446  03C7  2BC9               	goto	u1690
  3447  03C8                     u1691:
  3448  03C8  2C0D               	goto	l1877
  3449  03C9                     u1690:
  3450  03C9                     l1843:
  3451  03C9  1F78               	btfss	___fladd@signs,6
  3452  03CA  2BCC               	goto	u1701
  3453  03CB  2BCD               	goto	u1700
  3454  03CC                     u1701:
  3455  03CC  2BD1               	goto	l1847
  3456  03CD                     u1700:
  3457  03CD                     l1845:
  3458  03CD  3080               	movlw	128
  3459  03CE  00A0               	movwf	??___fladd
  3460  03CF  0820               	movf	??___fladd,w
  3461  03D0  06F8               	xorwf	___fladd@signs,f
  3462  03D1                     l1847:
  3463  03D1  087A               	movf	___fladd@bexp,w
  3464  03D2  00A0               	movwf	??___fladd
  3465  03D3  0820               	movf	??___fladd,w
  3466  03D4  00FB               	movwf	___fladd@grs
  3467  03D5                     l1849:
  3468  03D5  0879               	movf	___fladd@aexp,w
  3469  03D6  00A0               	movwf	??___fladd
  3470  03D7  0820               	movf	??___fladd,w
  3471  03D8  00FA               	movwf	___fladd@bexp
  3472  03D9                     l1851:
  3473  03D9  087B               	movf	___fladd@grs,w
  3474  03DA  00A0               	movwf	??___fladd
  3475  03DB  0820               	movf	??___fladd,w
  3476  03DC  00F9               	movwf	___fladd@aexp
  3477  03DD                     l1853:
  3478  03DD  0870               	movf	___fladd@b,w
  3479  03DE  00A0               	movwf	??___fladd
  3480  03DF  0820               	movf	??___fladd,w
  3481  03E0  00FB               	movwf	___fladd@grs
  3482  03E1                     l1855:
  3483  03E1  0874               	movf	___fladd@a,w
  3484  03E2  00A0               	movwf	??___fladd
  3485  03E3  0820               	movf	??___fladd,w
  3486  03E4  00F0               	movwf	___fladd@b
  3487  03E5                     l1857:
  3488  03E5  087B               	movf	___fladd@grs,w
  3489  03E6  00A0               	movwf	??___fladd
  3490  03E7  0820               	movf	??___fladd,w
  3491  03E8  00F4               	movwf	___fladd@a
  3492  03E9                     l1859:
  3493  03E9  0871               	movf	___fladd@b+1,w
  3494  03EA  00A0               	movwf	??___fladd
  3495  03EB  0820               	movf	??___fladd,w
  3496  03EC  00FB               	movwf	___fladd@grs
  3497  03ED                     l1861:
  3498  03ED  0875               	movf	___fladd@a+1,w
  3499  03EE  00A0               	movwf	??___fladd
  3500  03EF  0820               	movf	??___fladd,w
  3501  03F0  00F1               	movwf	___fladd@b+1
  3502  03F1                     l1863:
  3503  03F1  087B               	movf	___fladd@grs,w
  3504  03F2  00A0               	movwf	??___fladd
  3505  03F3  0820               	movf	??___fladd,w
  3506  03F4  00F5               	movwf	___fladd@a+1
  3507  03F5                     l1865:
  3508  03F5  0872               	movf	___fladd@b+2,w
  3509  03F6  00A0               	movwf	??___fladd
  3510  03F7  0820               	movf	??___fladd,w
  3511  03F8  00FB               	movwf	___fladd@grs
  3512  03F9                     l1867:
  3513  03F9  0876               	movf	___fladd@a+2,w
  3514  03FA  00A0               	movwf	??___fladd
  3515  03FB  0820               	movf	??___fladd,w
  3516  03FC  00F2               	movwf	___fladd@b+2
  3517  03FD                     l1869:
  3518  03FD  087B               	movf	___fladd@grs,w
  3519  03FE  00A0               	movwf	??___fladd
  3520  03FF  0820               	movf	??___fladd,w
  3521  0400  00F6               	movwf	___fladd@a+2
  3522  0401                     l1871:
  3523  0401  0873               	movf	___fladd@b+3,w
  3524  0402  00A0               	movwf	??___fladd
  3525  0403  0820               	movf	??___fladd,w
  3526  0404  00FB               	movwf	___fladd@grs
  3527  0405                     l1873:
  3528  0405  0877               	movf	___fladd@a+3,w
  3529  0406  00A0               	movwf	??___fladd
  3530  0407  0820               	movf	??___fladd,w
  3531  0408  00F3               	movwf	___fladd@b+3
  3532  0409                     l1875:
  3533  0409  087B               	movf	___fladd@grs,w
  3534  040A  00A0               	movwf	??___fladd
  3535  040B  0820               	movf	??___fladd,w
  3536  040C  00F7               	movwf	___fladd@a+3
  3537  040D                     l1877:
  3538  040D  01FB               	clrf	___fladd@grs
  3539  040E                     l1879:
  3540  040E  0879               	movf	___fladd@aexp,w
  3541  040F  00A0               	movwf	??___fladd
  3542  0410  01A1               	clrf	??___fladd+1
  3543  0411  0821               	movf	??___fladd+1,w
  3544  0412  00A3               	movwf	??___fladd+3
  3545  0413  087A               	movf	___fladd@bexp,w
  3546  0414  0220               	subwf	??___fladd,w
  3547  0415  00A2               	movwf	??___fladd+2
  3548  0416  1C03               	skipc
  3549  0417  03A3               	decf	??___fladd+3,f
  3550  0418  0823               	movf	??___fladd+3,w
  3551  0419  3A80               	xorlw	128
  3552  041A  00A4               	movwf	??___fladd+4
  3553  041B  3080               	movlw	128
  3554  041C  0224               	subwf	??___fladd+4,w
  3555  041D  1D03               	skipz
  3556  041E  2C21               	goto	u1715
  3557  041F  301A               	movlw	26
  3558  0420  0222               	subwf	??___fladd+2,w
  3559  0421                     u1715:
  3560  0421  1C03               	skipc
  3561  0422  2C24               	goto	u1711
  3562  0423  2C25               	goto	u1710
  3563  0424                     u1711:
  3564  0424  2C5F               	goto	l1895
  3565  0425                     u1710:
  3566  0425                     l1881:
  3567  0425  0873               	movf	___fladd@b+3,w
  3568  0426  0472               	iorwf	___fladd@b+2,w
  3569  0427  0471               	iorwf	___fladd@b+1,w
  3570  0428  0470               	iorwf	___fladd@b,w
  3571  0429  1D03               	skipz
  3572  042A  2C2C               	goto	u1721
  3573  042B  2C2E               	goto	u1720
  3574  042C                     u1721:
  3575  042C  3001               	movlw	1
  3576  042D  2C2F               	goto	u1730
  3577  042E                     u1720:
  3578  042E  3000               	movlw	0
  3579  042F                     u1730:
  3580  042F  0020               	movlb	0	; select bank0
  3581  0430  00A0               	movwf	??___fladd
  3582  0431  0820               	movf	??___fladd,w
  3583  0432  00FB               	movwf	___fladd@grs
  3584  0433  3000               	movlw	0
  3585  0434  00F3               	movwf	___fladd@b+3
  3586  0435  3000               	movlw	0
  3587  0436  00F2               	movwf	___fladd@b+2
  3588  0437  3000               	movlw	0
  3589  0438  00F1               	movwf	___fladd@b+1
  3590  0439  3000               	movlw	0
  3591  043A  00F0               	movwf	___fladd@b
  3592  043B  0879               	movf	___fladd@aexp,w
  3593  043C  00A0               	movwf	??___fladd
  3594  043D  0820               	movf	??___fladd,w
  3595  043E  00FA               	movwf	___fladd@bexp
  3596  043F  2C65               	goto	l730
  3597  0440                     l732:
  3598  0440  1C7B               	btfss	___fladd@grs,0
  3599  0441  2C43               	goto	u1741
  3600  0442  2C44               	goto	u1740
  3601  0443                     u1741:
  3602  0443  2C4B               	goto	l1885
  3603  0444                     u1740:
  3604  0444                     l1883:
  3605  0444  367B               	lsrf	___fladd@grs,w
  3606  0445  3801               	iorlw	1
  3607  0446  0020               	movlb	0	; select bank0
  3608  0447  00A0               	movwf	??___fladd
  3609  0448  0820               	movf	??___fladd,w
  3610  0449  00FB               	movwf	___fladd@grs
  3611  044A  2C4D               	goto	l1887
  3612  044B                     l1885:
  3613  044B  1003               	clrc
  3614  044C  0CFB               	rrf	___fladd@grs,f
  3615  044D                     l1887:
  3616  044D  1C70               	btfss	___fladd@b,0
  3617  044E  2C50               	goto	u1751
  3618  044F  2C51               	goto	u1750
  3619  0450                     u1751:
  3620  0450  2C52               	goto	l1891
  3621  0451                     u1750:
  3622  0451                     l1889:
  3623  0451  17FB               	bsf	___fladd@grs,7
  3624  0452                     l1891:
  3625  0452  3001               	movlw	1
  3626  0453  0020               	movlb	0	; select bank0
  3627  0454  00A0               	movwf	??___fladd
  3628  0455                     u1765:
  3629  0455  37F3               	asrf	___fladd@b+3,f
  3630  0456  0CF2               	rrf	___fladd@b+2,f
  3631  0457  0CF1               	rrf	___fladd@b+1,f
  3632  0458  0CF0               	rrf	___fladd@b,f
  3633  0459  0BA0               	decfsz	??___fladd& (0+127),f
  3634  045A  2C55               	goto	u1765
  3635  045B                     l1893:
  3636  045B  3001               	movlw	1
  3637  045C  00A0               	movwf	??___fladd
  3638  045D  0820               	movf	??___fladd,w
  3639  045E  07FA               	addwf	___fladd@bexp,f
  3640  045F                     l1895:
  3641  045F  0879               	movf	___fladd@aexp,w
  3642  0460  027A               	subwf	___fladd@bexp,w
  3643  0461  1C03               	skipc
  3644  0462  2C64               	goto	u1771
  3645  0463  2C65               	goto	u1770
  3646  0464                     u1771:
  3647  0464  2C40               	goto	l732
  3648  0465                     u1770:
  3649  0465                     l730:
  3650  0465  1B78               	btfsc	___fladd@signs,6
  3651  0466  2C68               	goto	u1781
  3652  0467  2C69               	goto	u1780
  3653  0468                     u1781:
  3654  0468  2CA3               	goto	l1921
  3655  0469                     u1780:
  3656  0469                     l1897:
  3657  0469  087A               	movf	___fladd@bexp,w
  3658  046A  1D03               	btfss	3,2
  3659  046B  2C6D               	goto	u1791
  3660  046C  2C6E               	goto	u1790
  3661  046D                     u1791:
  3662  046D  2C77               	goto	l1903
  3663  046E                     u1790:
  3664  046E                     l1899:
  3665  046E  3000               	movlw	0
  3666  046F  00F3               	movwf	?___fladd+3
  3667  0470  3000               	movlw	0
  3668  0471  00F2               	movwf	?___fladd+2
  3669  0472  3000               	movlw	0
  3670  0473  00F1               	movwf	?___fladd+1
  3671  0474  3000               	movlw	0
  3672  0475  00F0               	movwf	?___fladd
  3673  0476  2DA3               	goto	l739
  3674  0477                     l1903:
  3675  0477  0874               	movf	___fladd@a,w
  3676  0478  07F0               	addwf	___fladd@b,f
  3677  0479  0875               	movf	___fladd@a+1,w
  3678  047A  3DF1               	addwfc	___fladd@b+1,f
  3679  047B  0876               	movf	___fladd@a+2,w
  3680  047C  3DF2               	addwfc	___fladd@b+2,f
  3681  047D  0877               	movf	___fladd@a+3,w
  3682  047E  3DF3               	addwfc	___fladd@b+3,f
  3683  047F                     l1905:
  3684  047F  1C73               	btfss	___fladd@b+3,0
  3685  0480  2C82               	goto	u1801
  3686  0481  2C83               	goto	u1800
  3687  0482                     u1801:
  3688  0482  2D30               	goto	l1955
  3689  0483                     u1800:
  3690  0483                     l1907:
  3691  0483  1C7B               	btfss	___fladd@grs,0
  3692  0484  2C86               	goto	u1811
  3693  0485  2C87               	goto	u1810
  3694  0486                     u1811:
  3695  0486  2C8E               	goto	l1911
  3696  0487                     u1810:
  3697  0487                     l1909:
  3698  0487  367B               	lsrf	___fladd@grs,w
  3699  0488  3801               	iorlw	1
  3700  0489  0020               	movlb	0	; select bank0
  3701  048A  00A0               	movwf	??___fladd
  3702  048B  0820               	movf	??___fladd,w
  3703  048C  00FB               	movwf	___fladd@grs
  3704  048D  2C90               	goto	l1913
  3705  048E                     l1911:
  3706  048E  1003               	clrc
  3707  048F  0CFB               	rrf	___fladd@grs,f
  3708  0490                     l1913:
  3709  0490  1C70               	btfss	___fladd@b,0
  3710  0491  2C93               	goto	u1821
  3711  0492  2C94               	goto	u1820
  3712  0493                     u1821:
  3713  0493  2C95               	goto	l1917
  3714  0494                     u1820:
  3715  0494                     l1915:
  3716  0494  17FB               	bsf	___fladd@grs,7
  3717  0495                     l1917:
  3718  0495  3001               	movlw	1
  3719  0496  0020               	movlb	0	; select bank0
  3720  0497  00A0               	movwf	??___fladd
  3721  0498                     u1835:
  3722  0498  37F3               	asrf	___fladd@b+3,f
  3723  0499  0CF2               	rrf	___fladd@b+2,f
  3724  049A  0CF1               	rrf	___fladd@b+1,f
  3725  049B  0CF0               	rrf	___fladd@b,f
  3726  049C  0BA0               	decfsz	??___fladd& (0+127),f
  3727  049D  2C98               	goto	u1835
  3728  049E                     l1919:
  3729  049E  3001               	movlw	1
  3730  049F  00A0               	movwf	??___fladd
  3731  04A0  0820               	movf	??___fladd,w
  3732  04A1  07FA               	addwf	___fladd@bexp,f
  3733  04A2  2D30               	goto	l1955
  3734  04A3                     l1921:
  3735  04A3  0873               	movf	___fladd@b+3,w
  3736  04A4  3A80               	xorlw	128
  3737  04A5  0020               	movlb	0	; select bank0
  3738  04A6  00A0               	movwf	??___fladd
  3739  04A7  0877               	movf	___fladd@a+3,w
  3740  04A8  3A80               	xorlw	128
  3741  04A9  0220               	subwf	??___fladd,w
  3742  04AA  1D03               	skipz
  3743  04AB  2CB6               	goto	u1843
  3744  04AC  0876               	movf	___fladd@a+2,w
  3745  04AD  0272               	subwf	___fladd@b+2,w
  3746  04AE  1D03               	skipz
  3747  04AF  2CB6               	goto	u1843
  3748  04B0  0875               	movf	___fladd@a+1,w
  3749  04B1  0271               	subwf	___fladd@b+1,w
  3750  04B2  1D03               	skipz
  3751  04B3  2CB6               	goto	u1843
  3752  04B4  0874               	movf	___fladd@a,w
  3753  04B5  0270               	subwf	___fladd@b,w
  3754  04B6                     u1843:
  3755  04B6  1803               	skipnc
  3756  04B7  2CB9               	goto	u1841
  3757  04B8  2CBA               	goto	u1840
  3758  04B9                     u1841:
  3759  04B9  2CF2               	goto	l1931
  3760  04BA                     u1840:
  3761  04BA                     l1923:
  3762  04BA  30FF               	movlw	255
  3763  04BB  00A0               	movwf	??___fladd
  3764  04BC  30FF               	movlw	255
  3765  04BD  00A1               	movwf	??___fladd+1
  3766  04BE  30FF               	movlw	255
  3767  04BF  00A2               	movwf	??___fladd+2
  3768  04C0  30FF               	movlw	255
  3769  04C1  00A3               	movwf	??___fladd+3
  3770  04C2  0870               	movf	___fladd@b,w
  3771  04C3  0274               	subwf	___fladd@a,w
  3772  04C4  00A4               	movwf	??___fladd+4
  3773  04C5  0871               	movf	___fladd@b+1,w
  3774  04C6  3B75               	subwfb	___fladd@a+1,w
  3775  04C7  00A5               	movwf	??___fladd+5
  3776  04C8  0872               	movf	___fladd@b+2,w
  3777  04C9  3B76               	subwfb	___fladd@a+2,w
  3778  04CA  00A6               	movwf	??___fladd+6
  3779  04CB  0873               	movf	___fladd@b+3,w
  3780  04CC  3B77               	subwfb	___fladd@a+3,w
  3781  04CD  00A7               	movwf	??___fladd+7
  3782  04CE  0824               	movf	??___fladd+4,w
  3783  04CF  07A0               	addwf	??___fladd,f
  3784  04D0  0825               	movf	??___fladd+5,w
  3785  04D1  3DA1               	addwfc	??___fladd+1,f
  3786  04D2  0826               	movf	??___fladd+6,w
  3787  04D3  3DA2               	addwfc	??___fladd+2,f
  3788  04D4  0827               	movf	??___fladd+7,w
  3789  04D5  3DA3               	addwfc	??___fladd+3,f
  3790  04D6  0823               	movf	??___fladd+3,w
  3791  04D7  00F3               	movwf	___fladd@b+3
  3792  04D8  0822               	movf	??___fladd+2,w
  3793  04D9  00F2               	movwf	___fladd@b+2
  3794  04DA  0821               	movf	??___fladd+1,w
  3795  04DB  00F1               	movwf	___fladd@b+1
  3796  04DC  0820               	movf	??___fladd,w
  3797  04DD  00F0               	movwf	___fladd@b
  3798  04DE                     l1925:
  3799  04DE  3080               	movlw	128
  3800  04DF  00A0               	movwf	??___fladd
  3801  04E0  0820               	movf	??___fladd,w
  3802  04E1  06F8               	xorwf	___fladd@signs,f
  3803  04E2  09FB               	comf	___fladd@grs,f
  3804  04E3  0AFB               	incf	___fladd@grs,f
  3805  04E4                     l1927:
  3806  04E4  087B               	movf	___fladd@grs,w
  3807  04E5  1D03               	btfss	3,2
  3808  04E6  2CE8               	goto	u1851
  3809  04E7  2CE9               	goto	u1850
  3810  04E8                     u1851:
  3811  04E8  2CFA               	goto	l747
  3812  04E9                     u1850:
  3813  04E9                     l1929:
  3814  04E9  3001               	movlw	1
  3815  04EA  07F0               	addwf	___fladd@b,f
  3816  04EB  3000               	movlw	0
  3817  04EC  3DF1               	addwfc	___fladd@b+1,f
  3818  04ED  3000               	movlw	0
  3819  04EE  3DF2               	addwfc	___fladd@b+2,f
  3820  04EF  3000               	movlw	0
  3821  04F0  3DF3               	addwfc	___fladd@b+3,f
  3822  04F1  2CFA               	goto	l747
  3823  04F2                     l1931:
  3824  04F2  0874               	movf	___fladd@a,w
  3825  04F3  02F0               	subwf	___fladd@b,f
  3826  04F4  0875               	movf	___fladd@a+1,w
  3827  04F5  3BF1               	subwfb	___fladd@b+1,f
  3828  04F6  0876               	movf	___fladd@a+2,w
  3829  04F7  3BF2               	subwfb	___fladd@b+2,f
  3830  04F8  0877               	movf	___fladd@a+3,w
  3831  04F9  3BF3               	subwfb	___fladd@b+3,f
  3832  04FA                     l747:
  3833  04FA  0873               	movf	___fladd@b+3,w
  3834  04FB  0472               	iorwf	___fladd@b+2,w
  3835  04FC  0471               	iorwf	___fladd@b+1,w
  3836  04FD  0470               	iorwf	___fladd@b,w
  3837  04FE  1D03               	skipz
  3838  04FF  2D01               	goto	u1861
  3839  0500  2D02               	goto	u1860
  3840  0501                     u1861:
  3841  0501  2D2C               	goto	l1953
  3842  0502                     u1860:
  3843  0502                     l1933:
  3844  0502  087B               	movf	___fladd@grs,w
  3845  0503  1D03               	btfss	3,2
  3846  0504  2D06               	goto	u1871
  3847  0505  2D07               	goto	u1870
  3848  0506                     u1871:
  3849  0506  2D2C               	goto	l1953
  3850  0507                     u1870:
  3851  0507                     l1935:
  3852  0507  3000               	movlw	0
  3853  0508  00F3               	movwf	?___fladd+3
  3854  0509  3000               	movlw	0
  3855  050A  00F2               	movwf	?___fladd+2
  3856  050B  3000               	movlw	0
  3857  050C  00F1               	movwf	?___fladd+1
  3858  050D  3000               	movlw	0
  3859  050E  00F0               	movwf	?___fladd
  3860  050F  2DA3               	goto	l739
  3861  0510                     l1939:
  3862  0510  3001               	movlw	1
  3863  0511                     u1885:
  3864  0511  35F0               	lslf	___fladd@b,f
  3865  0512  0DF1               	rlf	___fladd@b+1,f
  3866  0513  0DF2               	rlf	___fladd@b+2,f
  3867  0514  0DF3               	rlf	___fladd@b+3,f
  3868  0515  0B89               	decfsz	9,f
  3869  0516  2D11               	goto	u1885
  3870  0517                     l1941:
  3871  0517  1FFB               	btfss	___fladd@grs,7
  3872  0518  2D1A               	goto	u1891
  3873  0519  2D1B               	goto	u1890
  3874  051A                     u1891:
  3875  051A  2D1C               	goto	l751
  3876  051B                     u1890:
  3877  051B                     l1943:
  3878  051B  1470               	bsf	___fladd@b,0
  3879  051C                     l751:
  3880  051C  1C7B               	btfss	___fladd@grs,0
  3881  051D  2D1F               	goto	u1901
  3882  051E  2D20               	goto	u1900
  3883  051F                     u1901:
  3884  051F  2D23               	goto	l1947
  3885  0520                     u1900:
  3886  0520                     l1945:
  3887  0520  1403               	setc
  3888  0521  0DFB               	rlf	___fladd@grs,f
  3889  0522  2D25               	goto	l1949
  3890  0523                     l1947:
  3891  0523  1003               	clrc
  3892  0524  0DFB               	rlf	___fladd@grs,f
  3893  0525                     l1949:
  3894  0525  087A               	movf	___fladd@bexp,w
  3895  0526  1903               	btfsc	3,2
  3896  0527  2D29               	goto	u1911
  3897  0528  2D2A               	goto	u1910
  3898  0529                     u1911:
  3899  0529  2D2C               	goto	l1953
  3900  052A                     u1910:
  3901  052A                     l1951:
  3902  052A  3001               	movlw	1
  3903  052B  02FA               	subwf	___fladd@bexp,f
  3904  052C                     l1953:
  3905  052C  1FF2               	btfss	___fladd@b+2,7
  3906  052D  2D2F               	goto	u1921
  3907  052E  2D30               	goto	u1920
  3908  052F                     u1921:
  3909  052F  2D10               	goto	l1939
  3910  0530                     u1920:
  3911  0530                     l1955:
  3912  0530  01F9               	clrf	___fladd@aexp
  3913  0531                     l1957:
  3914  0531  1FFB               	btfss	___fladd@grs,7
  3915  0532  2D34               	goto	u1931
  3916  0533  2D35               	goto	u1930
  3917  0534                     u1931:
  3918  0534  2D43               	goto	l1965
  3919  0535                     u1930:
  3920  0535                     l1959:
  3921  0535  087B               	movf	___fladd@grs,w
  3922  0536  397F               	andlw	127
  3923  0537  1903               	btfsc	3,2
  3924  0538  2D3A               	goto	u1941
  3925  0539  2D3B               	goto	u1940
  3926  053A                     u1941:
  3927  053A  2D3E               	goto	l757
  3928  053B                     u1940:
  3929  053B                     l1961:
  3930  053B  01F9               	clrf	___fladd@aexp
  3931  053C  0AF9               	incf	___fladd@aexp,f
  3932  053D  2D43               	goto	l1965
  3933  053E                     l757:
  3934  053E  1C70               	btfss	___fladd@b,0
  3935  053F  2D41               	goto	u1951
  3936  0540  2D42               	goto	u1950
  3937  0541                     u1951:
  3938  0541  2D43               	goto	l1965
  3939  0542                     u1950:
  3940  0542  2D3B               	goto	l1961
  3941  0543                     l1965:
  3942  0543  0879               	movf	___fladd@aexp,w
  3943  0544  1903               	btfsc	3,2
  3944  0545  2D47               	goto	u1961
  3945  0546  2D48               	goto	u1960
  3946  0547                     u1961:
  3947  0547  2D76               	goto	l760
  3948  0548                     u1960:
  3949  0548                     l1967:
  3950  0548  3001               	movlw	1
  3951  0549  07F0               	addwf	___fladd@b,f
  3952  054A  3000               	movlw	0
  3953  054B  3DF1               	addwfc	___fladd@b+1,f
  3954  054C  3000               	movlw	0
  3955  054D  3DF2               	addwfc	___fladd@b+2,f
  3956  054E  3000               	movlw	0
  3957  054F  3DF3               	addwfc	___fladd@b+3,f
  3958  0550                     l1969:
  3959  0550  1C73               	btfss	___fladd@b+3,0
  3960  0551  2D53               	goto	u1971
  3961  0552  2D54               	goto	u1970
  3962  0553                     u1971:
  3963  0553  2D76               	goto	l760
  3964  0554                     u1970:
  3965  0554                     l1971:
  3966  0554  0870               	movf	___fladd@b,w
  3967  0555  0020               	movlb	0	; select bank0
  3968  0556  00A0               	movwf	??___fladd
  3969  0557  0871               	movf	___fladd@b+1,w
  3970  0558  00A1               	movwf	??___fladd+1
  3971  0559  0872               	movf	___fladd@b+2,w
  3972  055A  00A2               	movwf	??___fladd+2
  3973  055B  0873               	movf	___fladd@b+3,w
  3974  055C  00A3               	movwf	??___fladd+3
  3975  055D  3001               	movlw	1
  3976  055E  00A4               	movwf	??___fladd+4
  3977  055F                     u1985:
  3978  055F  37A3               	asrf	??___fladd+3,f
  3979  0560  0CA2               	rrf	??___fladd+2,f
  3980  0561  0CA1               	rrf	??___fladd+1,f
  3981  0562  0CA0               	rrf	??___fladd,f
  3982  0563                     u1980:
  3983  0563  0BA4               	decfsz	??___fladd+4,f
  3984  0564  2D5F               	goto	u1985
  3985  0565  0823               	movf	??___fladd+3,w
  3986  0566  00F3               	movwf	___fladd@b+3
  3987  0567  0822               	movf	??___fladd+2,w
  3988  0568  00F2               	movwf	___fladd@b+2
  3989  0569  0821               	movf	??___fladd+1,w
  3990  056A  00F1               	movwf	___fladd@b+1
  3991  056B  0820               	movf	??___fladd,w
  3992  056C  00F0               	movwf	___fladd@b
  3993  056D  0A7A               	incf	___fladd@bexp,w
  3994  056E  1903               	btfsc	3,2
  3995  056F  2D71               	goto	u1991
  3996  0570  2D72               	goto	u1990
  3997  0571                     u1991:
  3998  0571  2D76               	goto	l760
  3999  0572                     u1990:
  4000  0572                     l1973:
  4001  0572  3001               	movlw	1
  4002  0573  00A0               	movwf	??___fladd
  4003  0574  0820               	movf	??___fladd,w
  4004  0575  07FA               	addwf	___fladd@bexp,f
  4005  0576                     l760:
  4006  0576  0A7A               	incf	___fladd@bexp,w
  4007  0577  1903               	btfsc	3,2
  4008  0578  2D7A               	goto	u2001
  4009  0579  2D7B               	goto	u2000
  4010  057A                     u2001:
  4011  057A  2D80               	goto	l1977
  4012  057B                     u2000:
  4013  057B                     l1975:
  4014  057B  087A               	movf	___fladd@bexp,w
  4015  057C  1D03               	btfss	3,2
  4016  057D  2D7F               	goto	u2011
  4017  057E  2D80               	goto	u2010
  4018  057F                     u2011:
  4019  057F  2D8E               	goto	l1983
  4020  0580                     u2010:
  4021  0580                     l1977:
  4022  0580  3000               	movlw	0
  4023  0581  00F3               	movwf	___fladd@b+3
  4024  0582  3000               	movlw	0
  4025  0583  00F2               	movwf	___fladd@b+2
  4026  0584  3000               	movlw	0
  4027  0585  00F1               	movwf	___fladd@b+1
  4028  0586  3000               	movlw	0
  4029  0587  00F0               	movwf	___fladd@b
  4030  0588                     l1979:
  4031  0588  087A               	movf	___fladd@bexp,w
  4032  0589  1D03               	btfss	3,2
  4033  058A  2D8C               	goto	u2021
  4034  058B  2D8D               	goto	u2020
  4035  058C                     u2021:
  4036  058C  2D8E               	goto	l1983
  4037  058D                     u2020:
  4038  058D                     l1981:
  4039  058D  01F8               	clrf	___fladd@signs
  4040  058E                     l1983:
  4041  058E  1C7A               	btfss	___fladd@bexp,0
  4042  058F  2D91               	goto	u2031
  4043  0590  2D92               	goto	u2030
  4044  0591                     u2031:
  4045  0591  2D94               	goto	l1987
  4046  0592                     u2030:
  4047  0592                     l1985:
  4048  0592  17F2               	bsf	___fladd@b+2,7
  4049  0593  2D99               	goto	l768
  4050  0594                     l1987:
  4051  0594  307F               	movlw	127
  4052  0595  0020               	movlb	0	; select bank0
  4053  0596  00A0               	movwf	??___fladd
  4054  0597  0820               	movf	??___fladd,w
  4055  0598  05F2               	andwf	___fladd@b+2,f
  4056  0599                     l768:
  4057  0599  367A               	lsrf	___fladd@bexp,w
  4058  059A  0020               	movlb	0	; select bank0
  4059  059B  00A0               	movwf	??___fladd
  4060  059C  0820               	movf	??___fladd,w
  4061  059D  00F3               	movwf	___fladd@b+3
  4062  059E                     l1989:
  4063  059E  1FF8               	btfss	___fladd@signs,7
  4064  059F  2DA1               	goto	u2041
  4065  05A0  2DA2               	goto	u2040
  4066  05A1                     u2041:
  4067  05A1  2DA3               	goto	l769
  4068  05A2                     u2040:
  4069  05A2                     l1991:
  4070  05A2  17F3               	bsf	___fladd@b+3,7
  4071  05A3                     l769:
  4072  05A3                     l739:
  4073  05A3  0008               	return
  4074  05A4                     __end_of___fladd:
  4075                           
  4076                           	psect	text12
  4077  05A4                     __ptext12:	
  4078 ;; *************** function ___flmul *****************
  4079 ;; Defined at:
  4080 ;;		line 8 in file "/opt/microchip/xc8/v2.31/pic/sources/c99/common/sprcmul.c"
  4081 ;; Parameters:    Size  Location     Type
  4082 ;;  b               4    9[BANK0 ] unsigned char 
  4083 ;;  a               4   13[BANK0 ] unsigned char 
  4084 ;; Auto vars:     Size  Location     Type
  4085 ;;  prod            4   29[BANK0 ] struct .
  4086 ;;  grs             4   23[BANK0 ] unsigned long 
  4087 ;;  temp            2   33[BANK0 ] struct .
  4088 ;;  bexp            1   28[BANK0 ] unsigned char 
  4089 ;;  aexp            1   27[BANK0 ] unsigned char 
  4090 ;;  sign            1   22[BANK0 ] unsigned char 
  4091 ;; Return value:  Size  Location     Type
  4092 ;;                  4    9[BANK0 ] unsigned char 
  4093 ;; Registers used:
  4094 ;;		wreg, status,2, status,0, pclath, cstack
  4095 ;; Tracked objects:
  4096 ;;		On entry : 0/0
  4097 ;;		On exit  : 0/0
  4098 ;;		Unchanged: 0/0
  4099 ;; Data sizes:     COMMON   BANK0   BANK1   BANK2   BANK3   BANK4   BANK5   BANK6   BANK7   BANK8   BANK9  BANK10  BANK1
      +1  BANK12
  4100 ;;      Params:         0       8       0       0       0       0       0       0       0       0       0       0       
      +0       0
  4101 ;;      Locals:         0      13       0       0       0       0       0       0       0       0       0       0       
      +0       0
  4102 ;;      Temps:          0       5       0       0       0       0       0       0       0       0       0       0       
      +0       0
  4103 ;;      Totals:         0      26       0       0       0       0       0       0       0       0       0       0       
      +0       0
  4104 ;;Total ram usage:       26 bytes
  4105 ;; Hardware stack levels used:    1
  4106 ;; Hardware stack levels required when called:    1
  4107 ;; This function calls:
  4108 ;;		__Umul8_16
  4109 ;; This function is called by:
  4110 ;;		_ftoa
  4111 ;; This function uses a non-reentrant model
  4112 ;;
  4113                           
  4114                           
  4115                           ;psect for function ___flmul
  4116  05A4                     ___flmul:
  4117  05A4                     l2191:	
  4118                           ;incstack = 0
  4119                           ; Regs used in ___flmul: [wreg+status,2+status,0+pclath+cstack]
  4120                           
  4121  05A4  0020               	movlb	0	; select bank0
  4122  05A5  082C               	movf	___flmul@b+3,w
  4123  05A6  3980               	andlw	128
  4124  05A7  00B1               	movwf	??___flmul
  4125  05A8  0831               	movf	??___flmul,w
  4126  05A9  00B6               	movwf	___flmul@sign
  4127  05AA                     l2193:
  4128  05AA  352C               	lslf	___flmul@b+3,w
  4129  05AB  00B1               	movwf	??___flmul
  4130  05AC  0831               	movf	??___flmul,w
  4131  05AD  00BC               	movwf	___flmul@bexp
  4132  05AE                     l2195:
  4133  05AE  1FAB               	btfss	___flmul@b+2,7
  4134  05AF  2DB1               	goto	u2371
  4135  05B0  2DB2               	goto	u2370
  4136  05B1                     u2371:
  4137  05B1  2DB3               	goto	l2199
  4138  05B2                     u2370:
  4139  05B2                     l2197:
  4140  05B2  143C               	bsf	___flmul@bexp,0
  4141  05B3                     l2199:
  4142  05B3  083C               	movf	___flmul@bexp,w
  4143  05B4  1903               	btfsc	3,2
  4144  05B5  2DB7               	goto	u2381
  4145  05B6  2DB8               	goto	u2380
  4146  05B7                     u2381:
  4147  05B7  2DC7               	goto	l2207
  4148  05B8                     u2380:
  4149  05B8                     l2201:
  4150  05B8  0A3C               	incf	___flmul@bexp,w
  4151  05B9  1D03               	btfss	3,2
  4152  05BA  2DBC               	goto	u2391
  4153  05BB  2DBD               	goto	u2390
  4154  05BC                     u2391:
  4155  05BC  2DC5               	goto	l2205
  4156  05BD                     u2390:
  4157  05BD                     l2203:
  4158  05BD  3000               	movlw	0
  4159  05BE  00AC               	movwf	___flmul@b+3
  4160  05BF  3000               	movlw	0
  4161  05C0  00AB               	movwf	___flmul@b+2
  4162  05C1  3000               	movlw	0
  4163  05C2  00AA               	movwf	___flmul@b+1
  4164  05C3  3000               	movlw	0
  4165  05C4  00A9               	movwf	___flmul@b
  4166  05C5                     l2205:
  4167  05C5  17AB               	bsf	___flmul@b+2,7
  4168  05C6  2DCF               	goto	l2209
  4169  05C7                     l2207:
  4170  05C7  3000               	movlw	0
  4171  05C8  00AC               	movwf	___flmul@b+3
  4172  05C9  3000               	movlw	0
  4173  05CA  00AB               	movwf	___flmul@b+2
  4174  05CB  3000               	movlw	0
  4175  05CC  00AA               	movwf	___flmul@b+1
  4176  05CD  3000               	movlw	0
  4177  05CE  00A9               	movwf	___flmul@b
  4178  05CF                     l2209:
  4179  05CF  0830               	movf	___flmul@a+3,w
  4180  05D0  3980               	andlw	128
  4181  05D1  00B1               	movwf	??___flmul
  4182  05D2  0831               	movf	??___flmul,w
  4183  05D3  06B6               	xorwf	___flmul@sign,f
  4184  05D4                     l2211:
  4185  05D4  3530               	lslf	___flmul@a+3,w
  4186  05D5  00B1               	movwf	??___flmul
  4187  05D6  0831               	movf	??___flmul,w
  4188  05D7  00BB               	movwf	___flmul@aexp
  4189  05D8                     l2213:
  4190  05D8  1FAF               	btfss	___flmul@a+2,7
  4191  05D9  2DDB               	goto	u2401
  4192  05DA  2DDC               	goto	u2400
  4193  05DB                     u2401:
  4194  05DB  2DDD               	goto	l2217
  4195  05DC                     u2400:
  4196  05DC                     l2215:
  4197  05DC  143B               	bsf	___flmul@aexp,0
  4198  05DD                     l2217:
  4199  05DD  083B               	movf	___flmul@aexp,w
  4200  05DE  1903               	btfsc	3,2
  4201  05DF  2DE1               	goto	u2411
  4202  05E0  2DE2               	goto	u2410
  4203  05E1                     u2411:
  4204  05E1  2DF1               	goto	l2225
  4205  05E2                     u2410:
  4206  05E2                     l2219:
  4207  05E2  0A3B               	incf	___flmul@aexp,w
  4208  05E3  1D03               	btfss	3,2
  4209  05E4  2DE6               	goto	u2421
  4210  05E5  2DE7               	goto	u2420
  4211  05E6                     u2421:
  4212  05E6  2DEF               	goto	l2223
  4213  05E7                     u2420:
  4214  05E7                     l2221:
  4215  05E7  3000               	movlw	0
  4216  05E8  00B0               	movwf	___flmul@a+3
  4217  05E9  3000               	movlw	0
  4218  05EA  00AF               	movwf	___flmul@a+2
  4219  05EB  3000               	movlw	0
  4220  05EC  00AE               	movwf	___flmul@a+1
  4221  05ED  3000               	movlw	0
  4222  05EE  00AD               	movwf	___flmul@a
  4223  05EF                     l2223:
  4224  05EF  17AF               	bsf	___flmul@a+2,7
  4225  05F0  2DF9               	goto	l2227
  4226  05F1                     l2225:
  4227  05F1  3000               	movlw	0
  4228  05F2  00B0               	movwf	___flmul@a+3
  4229  05F3  3000               	movlw	0
  4230  05F4  00AF               	movwf	___flmul@a+2
  4231  05F5  3000               	movlw	0
  4232  05F6  00AE               	movwf	___flmul@a+1
  4233  05F7  3000               	movlw	0
  4234  05F8  00AD               	movwf	___flmul@a
  4235  05F9                     l2227:
  4236  05F9  083B               	movf	___flmul@aexp,w
  4237  05FA  1903               	btfsc	3,2
  4238  05FB  2DFD               	goto	u2431
  4239  05FC  2DFE               	goto	u2430
  4240  05FD                     u2431:
  4241  05FD  2E03               	goto	l2231
  4242  05FE                     u2430:
  4243  05FE                     l2229:
  4244  05FE  083C               	movf	___flmul@bexp,w
  4245  05FF  1D03               	btfss	3,2
  4246  0600  2E02               	goto	u2441
  4247  0601  2E03               	goto	u2440
  4248  0602                     u2441:
  4249  0602  2E0C               	goto	l2235
  4250  0603                     u2440:
  4251  0603                     l2231:
  4252  0603  3000               	movlw	0
  4253  0604  00AC               	movwf	?___flmul+3
  4254  0605  3000               	movlw	0
  4255  0606  00AB               	movwf	?___flmul+2
  4256  0607  3000               	movlw	0
  4257  0608  00AA               	movwf	?___flmul+1
  4258  0609  3000               	movlw	0
  4259  060A  00A9               	movwf	?___flmul
  4260  060B  2FFA               	goto	l822
  4261  060C                     l2235:
  4262  060C  0829               	movf	___flmul@b,w
  4263  060D  00B1               	movwf	??___flmul
  4264  060E  0831               	movf	??___flmul,w
  4265  060F  00F0               	movwf	__Umul8_16@multiplicand
  4266  0610  082F               	movf	___flmul@a+2,w
  4267  0611  318F  277C  3185   	fcall	__Umul8_16
  4268  0614  0871               	movf	?__Umul8_16+1,w
  4269  0615  0020               	movlb	0	; select bank0
  4270  0616  00C2               	movwf	___flmul@temp+1
  4271  0617  0870               	movf	?__Umul8_16,w
  4272  0618  00C1               	movwf	___flmul@temp
  4273  0619                     l2237:
  4274  0619  0841               	movf	___flmul@temp,w
  4275  061A  00B1               	movwf	??___flmul
  4276  061B  01B2               	clrf	??___flmul+1
  4277  061C  01B3               	clrf	??___flmul+2
  4278  061D  01B4               	clrf	??___flmul+3
  4279  061E  0834               	movf	??___flmul+3,w
  4280  061F  00BA               	movwf	___flmul@grs+3
  4281  0620  0833               	movf	??___flmul+2,w
  4282  0621  00B9               	movwf	___flmul@grs+2
  4283  0622  0832               	movf	??___flmul+1,w
  4284  0623  00B8               	movwf	___flmul@grs+1
  4285  0624  0831               	movf	??___flmul,w
  4286  0625  00B7               	movwf	___flmul@grs
  4287  0626                     l2239:
  4288  0626  0842               	movf	___flmul@temp+1,w
  4289  0627  00B1               	movwf	??___flmul
  4290  0628  01B2               	clrf	??___flmul+1
  4291  0629  01B3               	clrf	??___flmul+2
  4292  062A  01B4               	clrf	??___flmul+3
  4293  062B  0834               	movf	??___flmul+3,w
  4294  062C  00C0               	movwf	___flmul@prod+3
  4295  062D  0833               	movf	??___flmul+2,w
  4296  062E  00BF               	movwf	___flmul@prod+2
  4297  062F  0832               	movf	??___flmul+1,w
  4298  0630  00BE               	movwf	___flmul@prod+1
  4299  0631  0831               	movf	??___flmul,w
  4300  0632  00BD               	movwf	___flmul@prod
  4301  0633  082A               	movf	___flmul@b+1,w
  4302  0634  00B1               	movwf	??___flmul
  4303  0635  0831               	movf	??___flmul,w
  4304  0636  00F0               	movwf	__Umul8_16@multiplicand
  4305  0637  082E               	movf	___flmul@a+1,w
  4306  0638  318F  277C  3185   	fcall	__Umul8_16
  4307  063B  0871               	movf	?__Umul8_16+1,w
  4308  063C  0020               	movlb	0	; select bank0
  4309  063D  00C2               	movwf	___flmul@temp+1
  4310  063E  0870               	movf	?__Umul8_16,w
  4311  063F  00C1               	movwf	___flmul@temp
  4312  0640                     l2241:
  4313  0640  0841               	movf	___flmul@temp,w
  4314  0641  00B1               	movwf	??___flmul
  4315  0642  01B2               	clrf	??___flmul+1
  4316  0643  01B3               	clrf	??___flmul+2
  4317  0644  01B4               	clrf	??___flmul+3
  4318  0645  0831               	movf	??___flmul,w
  4319  0646  07B7               	addwf	___flmul@grs,f
  4320  0647  0832               	movf	??___flmul+1,w
  4321  0648  3DB8               	addwfc	___flmul@grs+1,f
  4322  0649  0833               	movf	??___flmul+2,w
  4323  064A  3DB9               	addwfc	___flmul@grs+2,f
  4324  064B  0834               	movf	??___flmul+3,w
  4325  064C  3DBA               	addwfc	___flmul@grs+3,f
  4326  064D                     l2243:
  4327  064D  0842               	movf	___flmul@temp+1,w
  4328  064E  00B1               	movwf	??___flmul
  4329  064F  01B2               	clrf	??___flmul+1
  4330  0650  01B3               	clrf	??___flmul+2
  4331  0651  01B4               	clrf	??___flmul+3
  4332  0652  0831               	movf	??___flmul,w
  4333  0653  07BD               	addwf	___flmul@prod,f
  4334  0654  0832               	movf	??___flmul+1,w
  4335  0655  3DBE               	addwfc	___flmul@prod+1,f
  4336  0656  0833               	movf	??___flmul+2,w
  4337  0657  3DBF               	addwfc	___flmul@prod+2,f
  4338  0658  0834               	movf	??___flmul+3,w
  4339  0659  3DC0               	addwfc	___flmul@prod+3,f
  4340  065A  082B               	movf	___flmul@b+2,w
  4341  065B  00B1               	movwf	??___flmul
  4342  065C  0831               	movf	??___flmul,w
  4343  065D  00F0               	movwf	__Umul8_16@multiplicand
  4344  065E  082D               	movf	___flmul@a,w
  4345  065F  318F  277C  3185   	fcall	__Umul8_16
  4346  0662  0871               	movf	?__Umul8_16+1,w
  4347  0663  0020               	movlb	0	; select bank0
  4348  0664  00C2               	movwf	___flmul@temp+1
  4349  0665  0870               	movf	?__Umul8_16,w
  4350  0666  00C1               	movwf	___flmul@temp
  4351  0667                     l2245:
  4352  0667  0841               	movf	___flmul@temp,w
  4353  0668  00B1               	movwf	??___flmul
  4354  0669  01B2               	clrf	??___flmul+1
  4355  066A  01B3               	clrf	??___flmul+2
  4356  066B  01B4               	clrf	??___flmul+3
  4357  066C  0831               	movf	??___flmul,w
  4358  066D  07B7               	addwf	___flmul@grs,f
  4359  066E  0832               	movf	??___flmul+1,w
  4360  066F  3DB8               	addwfc	___flmul@grs+1,f
  4361  0670  0833               	movf	??___flmul+2,w
  4362  0671  3DB9               	addwfc	___flmul@grs+2,f
  4363  0672  0834               	movf	??___flmul+3,w
  4364  0673  3DBA               	addwfc	___flmul@grs+3,f
  4365  0674                     l2247:
  4366  0674  0842               	movf	___flmul@temp+1,w
  4367  0675  00B1               	movwf	??___flmul
  4368  0676  01B2               	clrf	??___flmul+1
  4369  0677  01B3               	clrf	??___flmul+2
  4370  0678  01B4               	clrf	??___flmul+3
  4371  0679  0831               	movf	??___flmul,w
  4372  067A  07BD               	addwf	___flmul@prod,f
  4373  067B  0832               	movf	??___flmul+1,w
  4374  067C  3DBE               	addwfc	___flmul@prod+1,f
  4375  067D  0833               	movf	??___flmul+2,w
  4376  067E  3DBF               	addwfc	___flmul@prod+2,f
  4377  067F  0834               	movf	??___flmul+3,w
  4378  0680  3DC0               	addwfc	___flmul@prod+3,f
  4379  0681                     l2249:
  4380  0681  3008               	movlw	8
  4381  0682                     u2455:
  4382  0682  35B7               	lslf	___flmul@grs,f
  4383  0683  0DB8               	rlf	___flmul@grs+1,f
  4384  0684  0DB9               	rlf	___flmul@grs+2,f
  4385  0685  0DBA               	rlf	___flmul@grs+3,f
  4386  0686  0B89               	decfsz	9,f
  4387  0687  2E82               	goto	u2455
  4388  0688                     l2251:
  4389  0688  082A               	movf	___flmul@b+1,w
  4390  0689  00B1               	movwf	??___flmul
  4391  068A  0831               	movf	??___flmul,w
  4392  068B  00F0               	movwf	__Umul8_16@multiplicand
  4393  068C  082D               	movf	___flmul@a,w
  4394  068D  318F  277C  3185   	fcall	__Umul8_16
  4395  0690  0871               	movf	?__Umul8_16+1,w
  4396  0691  0020               	movlb	0	; select bank0
  4397  0692  00C2               	movwf	___flmul@temp+1
  4398  0693  0870               	movf	?__Umul8_16,w
  4399  0694  00C1               	movwf	___flmul@temp
  4400  0695                     l2253:
  4401  0695  0841               	movf	___flmul@temp,w
  4402  0696  07B7               	addwf	___flmul@grs,f
  4403  0697  0842               	movf	___flmul@temp+1,w
  4404  0698  3DB8               	addwfc	___flmul@grs+1,f
  4405  0699  3000               	movlw	0
  4406  069A  3DB9               	addwfc	___flmul@grs+2,f
  4407  069B  3DBA               	addwfc	___flmul@grs+3,f
  4408  069C                     l2255:
  4409  069C  0829               	movf	___flmul@b,w
  4410  069D  00B1               	movwf	??___flmul
  4411  069E  0831               	movf	??___flmul,w
  4412  069F  00F0               	movwf	__Umul8_16@multiplicand
  4413  06A0  082E               	movf	___flmul@a+1,w
  4414  06A1  318F  277C  3185   	fcall	__Umul8_16
  4415  06A4  0871               	movf	?__Umul8_16+1,w
  4416  06A5  0020               	movlb	0	; select bank0
  4417  06A6  00C2               	movwf	___flmul@temp+1
  4418  06A7  0870               	movf	?__Umul8_16,w
  4419  06A8  00C1               	movwf	___flmul@temp
  4420  06A9                     l2257:
  4421  06A9  0841               	movf	___flmul@temp,w
  4422  06AA  07B7               	addwf	___flmul@grs,f
  4423  06AB  0842               	movf	___flmul@temp+1,w
  4424  06AC  3DB8               	addwfc	___flmul@grs+1,f
  4425  06AD  3000               	movlw	0
  4426  06AE  3DB9               	addwfc	___flmul@grs+2,f
  4427  06AF  3DBA               	addwfc	___flmul@grs+3,f
  4428  06B0                     l2259:
  4429  06B0  3008               	movlw	8
  4430  06B1                     u2465:
  4431  06B1  35B7               	lslf	___flmul@grs,f
  4432  06B2  0DB8               	rlf	___flmul@grs+1,f
  4433  06B3  0DB9               	rlf	___flmul@grs+2,f
  4434  06B4  0DBA               	rlf	___flmul@grs+3,f
  4435  06B5  0B89               	decfsz	9,f
  4436  06B6  2EB1               	goto	u2465
  4437  06B7  0829               	movf	___flmul@b,w
  4438  06B8  00B1               	movwf	??___flmul
  4439  06B9  0831               	movf	??___flmul,w
  4440  06BA  00F0               	movwf	__Umul8_16@multiplicand
  4441  06BB  082D               	movf	___flmul@a,w
  4442  06BC  318F  277C  3185   	fcall	__Umul8_16
  4443  06BF  0871               	movf	?__Umul8_16+1,w
  4444  06C0  0020               	movlb	0	; select bank0
  4445  06C1  00C2               	movwf	___flmul@temp+1
  4446  06C2  0870               	movf	?__Umul8_16,w
  4447  06C3  00C1               	movwf	___flmul@temp
  4448  06C4                     l2261:
  4449  06C4  0841               	movf	___flmul@temp,w
  4450  06C5  07B7               	addwf	___flmul@grs,f
  4451  06C6  0842               	movf	___flmul@temp+1,w
  4452  06C7  3DB8               	addwfc	___flmul@grs+1,f
  4453  06C8  3000               	movlw	0
  4454  06C9  3DB9               	addwfc	___flmul@grs+2,f
  4455  06CA  3DBA               	addwfc	___flmul@grs+3,f
  4456  06CB                     l2263:
  4457  06CB  082A               	movf	___flmul@b+1,w
  4458  06CC  00B1               	movwf	??___flmul
  4459  06CD  0831               	movf	??___flmul,w
  4460  06CE  00F0               	movwf	__Umul8_16@multiplicand
  4461  06CF  082F               	movf	___flmul@a+2,w
  4462  06D0  318F  277C  3185   	fcall	__Umul8_16
  4463  06D3  0871               	movf	?__Umul8_16+1,w
  4464  06D4  0020               	movlb	0	; select bank0
  4465  06D5  00C2               	movwf	___flmul@temp+1
  4466  06D6  0870               	movf	?__Umul8_16,w
  4467  06D7  00C1               	movwf	___flmul@temp
  4468  06D8  0841               	movf	___flmul@temp,w
  4469  06D9  07BD               	addwf	___flmul@prod,f
  4470  06DA  0842               	movf	___flmul@temp+1,w
  4471  06DB  3DBE               	addwfc	___flmul@prod+1,f
  4472  06DC  3000               	movlw	0
  4473  06DD  3DBF               	addwfc	___flmul@prod+2,f
  4474  06DE  3DC0               	addwfc	___flmul@prod+3,f
  4475  06DF                     l2265:
  4476  06DF  082B               	movf	___flmul@b+2,w
  4477  06E0  00B1               	movwf	??___flmul
  4478  06E1  0831               	movf	??___flmul,w
  4479  06E2  00F0               	movwf	__Umul8_16@multiplicand
  4480  06E3  082E               	movf	___flmul@a+1,w
  4481  06E4  318F  277C  3185   	fcall	__Umul8_16
  4482  06E7  0871               	movf	?__Umul8_16+1,w
  4483  06E8  0020               	movlb	0	; select bank0
  4484  06E9  00C2               	movwf	___flmul@temp+1
  4485  06EA  0870               	movf	?__Umul8_16,w
  4486  06EB  00C1               	movwf	___flmul@temp
  4487  06EC                     l2267:
  4488  06EC  0841               	movf	___flmul@temp,w
  4489  06ED  07BD               	addwf	___flmul@prod,f
  4490  06EE  0842               	movf	___flmul@temp+1,w
  4491  06EF  3DBE               	addwfc	___flmul@prod+1,f
  4492  06F0  3000               	movlw	0
  4493  06F1  3DBF               	addwfc	___flmul@prod+2,f
  4494  06F2  3DC0               	addwfc	___flmul@prod+3,f
  4495  06F3  082B               	movf	___flmul@b+2,w
  4496  06F4  00B1               	movwf	??___flmul
  4497  06F5  0831               	movf	??___flmul,w
  4498  06F6  00F0               	movwf	__Umul8_16@multiplicand
  4499  06F7  082F               	movf	___flmul@a+2,w
  4500  06F8  318F  277C  3185   	fcall	__Umul8_16
  4501  06FB  0871               	movf	?__Umul8_16+1,w
  4502  06FC  0020               	movlb	0	; select bank0
  4503  06FD  00C2               	movwf	___flmul@temp+1
  4504  06FE  0870               	movf	?__Umul8_16,w
  4505  06FF  00C1               	movwf	___flmul@temp
  4506  0700                     l2269:
  4507  0700  0841               	movf	___flmul@temp,w
  4508  0701  00B1               	movwf	??___flmul
  4509  0702  0842               	movf	___flmul@temp+1,w
  4510  0703  00B2               	movwf	??___flmul+1
  4511  0704  01B3               	clrf	??___flmul+2
  4512  0705  01B4               	clrf	??___flmul+3
  4513  0706  3008               	movlw	8
  4514  0707                     u2475:
  4515  0707  35B1               	lslf	??___flmul,f
  4516  0708  0DB2               	rlf	??___flmul+1,f
  4517  0709  0DB3               	rlf	??___flmul+2,f
  4518  070A  0DB4               	rlf	??___flmul+3,f
  4519  070B                     u2470:
  4520  070B  0B89               	decfsz	9,f
  4521  070C  2F07               	goto	u2475
  4522  070D  0831               	movf	??___flmul,w
  4523  070E  07BD               	addwf	___flmul@prod,f
  4524  070F  0832               	movf	??___flmul+1,w
  4525  0710  3DBE               	addwfc	___flmul@prod+1,f
  4526  0711  0833               	movf	??___flmul+2,w
  4527  0712  3DBF               	addwfc	___flmul@prod+2,f
  4528  0713  0834               	movf	??___flmul+3,w
  4529  0714  3DC0               	addwfc	___flmul@prod+3,f
  4530  0715                     l2271:
  4531  0715  0837               	movf	___flmul@grs,w
  4532  0716  00B1               	movwf	??___flmul
  4533  0717  0838               	movf	___flmul@grs+1,w
  4534  0718  00B2               	movwf	??___flmul+1
  4535  0719  0839               	movf	___flmul@grs+2,w
  4536  071A  00B3               	movwf	??___flmul+2
  4537  071B  083A               	movf	___flmul@grs+3,w
  4538  071C  00B4               	movwf	??___flmul+3
  4539  071D  3018               	movlw	24
  4540  071E                     u2485:
  4541  071E  36B4               	lsrf	??___flmul+3,f
  4542  071F  0CB3               	rrf	??___flmul+2,f
  4543  0720  0CB2               	rrf	??___flmul+1,f
  4544  0721  0CB1               	rrf	??___flmul,f
  4545  0722                     u2480:
  4546  0722  0B89               	decfsz	9,f
  4547  0723  2F1E               	goto	u2485
  4548  0724  0831               	movf	??___flmul,w
  4549  0725  07BD               	addwf	___flmul@prod,f
  4550  0726  0832               	movf	??___flmul+1,w
  4551  0727  3DBE               	addwfc	___flmul@prod+1,f
  4552  0728  0833               	movf	??___flmul+2,w
  4553  0729  3DBF               	addwfc	___flmul@prod+2,f
  4554  072A  0834               	movf	??___flmul+3,w
  4555  072B  3DC0               	addwfc	___flmul@prod+3,f
  4556  072C                     l2273:
  4557  072C  3008               	movlw	8
  4558  072D                     u2495:
  4559  072D  35B7               	lslf	___flmul@grs,f
  4560  072E  0DB8               	rlf	___flmul@grs+1,f
  4561  072F  0DB9               	rlf	___flmul@grs+2,f
  4562  0730  0DBA               	rlf	___flmul@grs+3,f
  4563  0731  0B89               	decfsz	9,f
  4564  0732  2F2D               	goto	u2495
  4565  0733                     l2275:
  4566  0733  083C               	movf	___flmul@bexp,w
  4567  0734  073B               	addwf	___flmul@aexp,w
  4568  0735  00B1               	movwf	??___flmul
  4569  0736  01B2               	clrf	??___flmul+1
  4570  0737  0DB2               	rlf	??___flmul+1,f
  4571  0738  0831               	movf	??___flmul,w
  4572  0739  3E82               	addlw	130
  4573  073A  00C1               	movwf	___flmul@temp
  4574  073B  30FF               	movlw	255
  4575  073C  3D32               	addwfc	??___flmul+1,w
  4576  073D  00C2               	movwf	___flmul@temp+1
  4577  073E  2F56               	goto	l2287
  4578  073F                     l2277:
  4579  073F  3001               	movlw	1
  4580  0740                     u2505:
  4581  0740  35BD               	lslf	___flmul@prod,f
  4582  0741  0DBE               	rlf	___flmul@prod+1,f
  4583  0742  0DBF               	rlf	___flmul@prod+2,f
  4584  0743  0DC0               	rlf	___flmul@prod+3,f
  4585  0744  0B89               	decfsz	9,f
  4586  0745  2F40               	goto	u2505
  4587  0746                     l2279:
  4588  0746  1FBA               	btfss	___flmul@grs+3,7
  4589  0747  2F49               	goto	u2511
  4590  0748  2F4A               	goto	u2510
  4591  0749                     u2511:
  4592  0749  2F4B               	goto	l2283
  4593  074A                     u2510:
  4594  074A                     l2281:
  4595  074A  143D               	bsf	___flmul@prod,0
  4596  074B                     l2283:
  4597  074B  3001               	movlw	1
  4598  074C                     u2525:
  4599  074C  35B7               	lslf	___flmul@grs,f
  4600  074D  0DB8               	rlf	___flmul@grs+1,f
  4601  074E  0DB9               	rlf	___flmul@grs+2,f
  4602  074F  0DBA               	rlf	___flmul@grs+3,f
  4603  0750  0B89               	decfsz	9,f
  4604  0751  2F4C               	goto	u2525
  4605  0752                     l2285:
  4606  0752  30FF               	movlw	255
  4607  0753  07C1               	addwf	___flmul@temp,f
  4608  0754  30FF               	movlw	255
  4609  0755  3DC2               	addwfc	___flmul@temp+1,f
  4610  0756                     l2287:
  4611  0756  1FBF               	btfss	___flmul@prod+2,7
  4612  0757  2F59               	goto	u2531
  4613  0758  2F5A               	goto	u2530
  4614  0759                     u2531:
  4615  0759  2F3F               	goto	l2277
  4616  075A                     u2530:
  4617  075A                     l2289:
  4618  075A  01BB               	clrf	___flmul@aexp
  4619  075B                     l2291:
  4620  075B  1FBA               	btfss	___flmul@grs+3,7
  4621  075C  2F5E               	goto	u2541
  4622  075D  2F5F               	goto	u2540
  4623  075E                     u2541:
  4624  075E  2F7B               	goto	l2299
  4625  075F                     u2540:
  4626  075F                     l2293:
  4627  075F  30FF               	movlw	255
  4628  0760  0537               	andwf	___flmul@grs,w
  4629  0761  00B1               	movwf	??___flmul
  4630  0762  30FF               	movlw	255
  4631  0763  0538               	andwf	___flmul@grs+1,w
  4632  0764  00B2               	movwf	??___flmul+1
  4633  0765  30FF               	movlw	255
  4634  0766  0539               	andwf	___flmul@grs+2,w
  4635  0767  00B3               	movwf	??___flmul+2
  4636  0768  307F               	movlw	127
  4637  0769  053A               	andwf	___flmul@grs+3,w
  4638  076A  00B4               	movwf	??___flmul+3
  4639  076B  0834               	movf	??___flmul+3,w
  4640  076C  0433               	iorwf	??___flmul+2,w
  4641  076D  0432               	iorwf	??___flmul+1,w
  4642  076E  0431               	iorwf	??___flmul,w
  4643  076F  1903               	skipnz
  4644  0770  2F72               	goto	u2551
  4645  0771  2F73               	goto	u2550
  4646  0772                     u2551:
  4647  0772  2F76               	goto	l828
  4648  0773                     u2550:
  4649  0773                     l2295:
  4650  0773  01BB               	clrf	___flmul@aexp
  4651  0774  0ABB               	incf	___flmul@aexp,f
  4652  0775  2F7B               	goto	l2299
  4653  0776                     l828:
  4654  0776  1C3D               	btfss	___flmul@prod,0
  4655  0777  2F79               	goto	u2561
  4656  0778  2F7A               	goto	u2560
  4657  0779                     u2561:
  4658  0779  2F7B               	goto	l2299
  4659  077A                     u2560:
  4660  077A  2F73               	goto	l2295
  4661  077B                     l2299:
  4662  077B  083B               	movf	___flmul@aexp,w
  4663  077C  1903               	btfsc	3,2
  4664  077D  2F7F               	goto	u2571
  4665  077E  2F80               	goto	u2570
  4666  077F                     u2571:
  4667  077F  2FA8               	goto	l2309
  4668  0780                     u2570:
  4669  0780                     l2301:
  4670  0780  3001               	movlw	1
  4671  0781  07BD               	addwf	___flmul@prod,f
  4672  0782  3000               	movlw	0
  4673  0783  3DBE               	addwfc	___flmul@prod+1,f
  4674  0784  3000               	movlw	0
  4675  0785  3DBF               	addwfc	___flmul@prod+2,f
  4676  0786  3000               	movlw	0
  4677  0787  3DC0               	addwfc	___flmul@prod+3,f
  4678  0788                     l2303:
  4679  0788  1C40               	btfss	___flmul@prod+3,0
  4680  0789  2F8B               	goto	u2581
  4681  078A  2F8C               	goto	u2580
  4682  078B                     u2581:
  4683  078B  2FA8               	goto	l2309
  4684  078C                     u2580:
  4685  078C                     l2305:
  4686  078C  083D               	movf	___flmul@prod,w
  4687  078D  00B1               	movwf	??___flmul
  4688  078E  083E               	movf	___flmul@prod+1,w
  4689  078F  00B2               	movwf	??___flmul+1
  4690  0790  083F               	movf	___flmul@prod+2,w
  4691  0791  00B3               	movwf	??___flmul+2
  4692  0792  0840               	movf	___flmul@prod+3,w
  4693  0793  00B4               	movwf	??___flmul+3
  4694  0794  3001               	movlw	1
  4695  0795  00B5               	movwf	??___flmul+4
  4696  0796                     u2595:
  4697  0796  37B4               	asrf	??___flmul+3,f
  4698  0797  0CB3               	rrf	??___flmul+2,f
  4699  0798  0CB2               	rrf	??___flmul+1,f
  4700  0799  0CB1               	rrf	??___flmul,f
  4701  079A                     u2590:
  4702  079A  0BB5               	decfsz	??___flmul+4,f
  4703  079B  2F96               	goto	u2595
  4704  079C  0834               	movf	??___flmul+3,w
  4705  079D  00C0               	movwf	___flmul@prod+3
  4706  079E  0833               	movf	??___flmul+2,w
  4707  079F  00BF               	movwf	___flmul@prod+2
  4708  07A0  0832               	movf	??___flmul+1,w
  4709  07A1  00BE               	movwf	___flmul@prod+1
  4710  07A2  0831               	movf	??___flmul,w
  4711  07A3  00BD               	movwf	___flmul@prod
  4712  07A4                     l2307:
  4713  07A4  3001               	movlw	1
  4714  07A5  07C1               	addwf	___flmul@temp,f
  4715  07A6  3000               	movlw	0
  4716  07A7  3DC2               	addwfc	___flmul@temp+1,f
  4717  07A8                     l2309:
  4718  07A8  0842               	movf	___flmul@temp+1,w
  4719  07A9  3A80               	xorlw	128
  4720  07AA  00B1               	movwf	??___flmul
  4721  07AB  3080               	movlw	128
  4722  07AC  0231               	subwf	??___flmul,w
  4723  07AD  1D03               	skipz
  4724  07AE  2FB1               	goto	u2605
  4725  07AF  30FF               	movlw	255
  4726  07B0  0241               	subwf	___flmul@temp,w
  4727  07B1                     u2605:
  4728  07B1  1C03               	skipc
  4729  07B2  2FB4               	goto	u2601
  4730  07B3  2FB5               	goto	u2600
  4731  07B4                     u2601:
  4732  07B4  2FBF               	goto	l2313
  4733  07B5                     u2600:
  4734  07B5                     l2311:
  4735  07B5  307F               	movlw	127
  4736  07B6  0020               	movlb	0	; select bank0
  4737  07B7  00C0               	movwf	___flmul@prod+3
  4738  07B8  3080               	movlw	128
  4739  07B9  00BF               	movwf	___flmul@prod+2
  4740  07BA  3000               	movlw	0
  4741  07BB  00BE               	movwf	___flmul@prod+1
  4742  07BC  3000               	movlw	0
  4743  07BD  00BD               	movwf	___flmul@prod
  4744  07BE  2FEE               	goto	l834
  4745  07BF                     l2313:
  4746  07BF  0020               	movlb	0	; select bank0
  4747  07C0  0842               	movf	___flmul@temp+1,w
  4748  07C1  3A80               	xorlw	128
  4749  07C2  00B1               	movwf	??___flmul
  4750  07C3  3080               	movlw	128
  4751  07C4  0231               	subwf	??___flmul,w
  4752  07C5  1D03               	skipz
  4753  07C6  2FC9               	goto	u2615
  4754  07C7  3001               	movlw	1
  4755  07C8  0241               	subwf	___flmul@temp,w
  4756  07C9                     u2615:
  4757  07C9  1803               	skipnc
  4758  07CA  2FCC               	goto	u2611
  4759  07CB  2FCD               	goto	u2610
  4760  07CC                     u2611:
  4761  07CC  2FD8               	goto	l2319
  4762  07CD                     u2610:
  4763  07CD                     l2315:
  4764  07CD  3000               	movlw	0
  4765  07CE  0020               	movlb	0	; select bank0
  4766  07CF  00C0               	movwf	___flmul@prod+3
  4767  07D0  3000               	movlw	0
  4768  07D1  00BF               	movwf	___flmul@prod+2
  4769  07D2  3000               	movlw	0
  4770  07D3  00BE               	movwf	___flmul@prod+1
  4771  07D4  3000               	movlw	0
  4772  07D5  00BD               	movwf	___flmul@prod
  4773  07D6                     l2317:
  4774  07D6  01B6               	clrf	___flmul@sign
  4775  07D7  2FEE               	goto	l834
  4776  07D8                     l2319:
  4777  07D8  0020               	movlb	0	; select bank0
  4778  07D9  0841               	movf	___flmul@temp,w
  4779  07DA  00B1               	movwf	??___flmul
  4780  07DB  0831               	movf	??___flmul,w
  4781  07DC  00BC               	movwf	___flmul@bexp
  4782  07DD  30FF               	movlw	255
  4783  07DE  05BD               	andwf	___flmul@prod,f
  4784  07DF  30FF               	movlw	255
  4785  07E0  05BE               	andwf	___flmul@prod+1,f
  4786  07E1  307F               	movlw	127
  4787  07E2  05BF               	andwf	___flmul@prod+2,f
  4788  07E3  3000               	movlw	0
  4789  07E4  05C0               	andwf	___flmul@prod+3,f
  4790  07E5                     l2321:
  4791  07E5  1C3C               	btfss	___flmul@bexp,0
  4792  07E6  2FE8               	goto	u2621
  4793  07E7  2FE9               	goto	u2620
  4794  07E8                     u2621:
  4795  07E8  2FEA               	goto	l2325
  4796  07E9                     u2620:
  4797  07E9                     l2323:
  4798  07E9  17BF               	bsf	___flmul@prod+2,7
  4799  07EA                     l2325:
  4800  07EA  363C               	lsrf	___flmul@bexp,w
  4801  07EB  00B1               	movwf	??___flmul
  4802  07EC  0831               	movf	??___flmul,w
  4803  07ED  00C0               	movwf	___flmul@prod+3
  4804  07EE                     l834:
  4805  07EE  0836               	movf	___flmul@sign,w
  4806  07EF  00B1               	movwf	??___flmul
  4807  07F0  0831               	movf	??___flmul,w
  4808  07F1  04C0               	iorwf	___flmul@prod+3,f
  4809  07F2                     l2327:
  4810  07F2  0840               	movf	___flmul@prod+3,w
  4811  07F3  00AC               	movwf	?___flmul+3
  4812  07F4  083F               	movf	___flmul@prod+2,w
  4813  07F5  00AB               	movwf	?___flmul+2
  4814  07F6  083E               	movf	___flmul@prod+1,w
  4815  07F7  00AA               	movwf	?___flmul+1
  4816  07F8  083D               	movf	___flmul@prod,w
  4817  07F9  00A9               	movwf	?___flmul
  4818  07FA                     l822:
  4819  07FA  0008               	return
  4820  07FB                     __end_of___flmul:
  4821                           
  4822                           	psect	text13
  4823  0F7C                     __ptext13:	
  4824 ;; *************** function __Umul8_16 *****************
  4825 ;; Defined at:
  4826 ;;		line 4 in file "/opt/microchip/xc8/v2.31/pic/sources/c99/common/Umul8_16.c"
  4827 ;; Parameters:    Size  Location     Type
  4828 ;;  multiplier      1    wreg     unsigned char 
  4829 ;;  multiplicand    1    0[COMMON] unsigned char 
  4830 ;; Auto vars:     Size  Location     Type
  4831 ;;  multiplier      1    8[COMMON] unsigned char 
  4832 ;;  word_mpld       2    6[COMMON] unsigned int 
  4833 ;;  product         2    4[COMMON] unsigned int 
  4834 ;; Return value:  Size  Location     Type
  4835 ;;                  2    0[COMMON] unsigned int 
  4836 ;; Registers used:
  4837 ;;		wreg, status,2, status,0
  4838 ;; Tracked objects:
  4839 ;;		On entry : 0/0
  4840 ;;		On exit  : 0/0
  4841 ;;		Unchanged: 0/0
  4842 ;; Data sizes:     COMMON   BANK0   BANK1   BANK2   BANK3   BANK4   BANK5   BANK6   BANK7   BANK8   BANK9  BANK10  BANK1
      +1  BANK12
  4843 ;;      Params:         2       0       0       0       0       0       0       0       0       0       0       0       
      +0       0
  4844 ;;      Locals:         5       0       0       0       0       0       0       0       0       0       0       0       
      +0       0
  4845 ;;      Temps:          2       0       0       0       0       0       0       0       0       0       0       0       
      +0       0
  4846 ;;      Totals:         9       0       0       0       0       0       0       0       0       0       0       0       
      +0       0
  4847 ;;Total ram usage:        9 bytes
  4848 ;; Hardware stack levels used:    1
  4849 ;; This function calls:
  4850 ;;		Nothing
  4851 ;; This function is called by:
  4852 ;;		___flmul
  4853 ;; This function uses a non-reentrant model
  4854 ;;
  4855                           
  4856                           
  4857                           ;psect for function __Umul8_16
  4858  0F7C                     __Umul8_16:
  4859                           
  4860                           ;incstack = 0
  4861                           ; Regs used in __Umul8_16: [wreg+status,2+status,0]
  4862                           ;__Umul8_16@multiplier stored from wreg
  4863  0F7C  00F8               	movwf	__Umul8_16@multiplier
  4864  0F7D                     l1993:
  4865  0F7D  01F4               	clrf	__Umul8_16@product
  4866  0F7E  01F5               	clrf	__Umul8_16@product+1
  4867  0F7F                     l1995:
  4868  0F7F  0870               	movf	__Umul8_16@multiplicand,w
  4869  0F80  00F2               	movwf	??__Umul8_16
  4870  0F81  01F3               	clrf	??__Umul8_16+1
  4871  0F82  0872               	movf	??__Umul8_16,w
  4872  0F83  00F6               	movwf	__Umul8_16@word_mpld
  4873  0F84  0873               	movf	??__Umul8_16+1,w
  4874  0F85  00F7               	movwf	__Umul8_16@word_mpld+1
  4875  0F86                     l1997:
  4876  0F86  1C78               	btfss	__Umul8_16@multiplier,0
  4877  0F87  2F89               	goto	u2051
  4878  0F88  2F8A               	goto	u2050
  4879  0F89                     u2051:
  4880  0F89  2F8E               	goto	l841
  4881  0F8A                     u2050:
  4882  0F8A                     l1999:
  4883  0F8A  0876               	movf	__Umul8_16@word_mpld,w
  4884  0F8B  07F4               	addwf	__Umul8_16@product,f
  4885  0F8C  0877               	movf	__Umul8_16@word_mpld+1,w
  4886  0F8D  3DF5               	addwfc	__Umul8_16@product+1,f
  4887  0F8E                     l841:
  4888  0F8E  3001               	movlw	1
  4889  0F8F                     u2065:
  4890  0F8F  35F6               	lslf	__Umul8_16@word_mpld,f
  4891  0F90  0DF7               	rlf	__Umul8_16@word_mpld+1,f
  4892  0F91  0B89               	decfsz	9,f
  4893  0F92  2F8F               	goto	u2065
  4894  0F93  1003               	clrc
  4895  0F94  0CF8               	rrf	__Umul8_16@multiplier,f
  4896  0F95                     l2001:
  4897  0F95  0878               	movf	__Umul8_16@multiplier,w
  4898  0F96  1D03               	btfss	3,2
  4899  0F97  2F99               	goto	u2071
  4900  0F98  2F9A               	goto	u2070
  4901  0F99                     u2071:
  4902  0F99  2F86               	goto	l1997
  4903  0F9A                     u2070:
  4904  0F9A                     l2003:
  4905  0F9A  0875               	movf	__Umul8_16@product+1,w
  4906  0F9B  00F1               	movwf	?__Umul8_16+1
  4907  0F9C  0874               	movf	__Umul8_16@product,w
  4908  0F9D  00F0               	movwf	?__Umul8_16
  4909  0F9E                     l843:
  4910  0F9E  0008               	return
  4911  0F9F                     __end_of__Umul8_16:
  4912                           
  4913                           	psect	text14
  4914  0F9F                     __ptext14:	
  4915 ;; *************** function _TX_Whole_String *****************
  4916 ;; Defined at:
  4917 ;;		line 131 in file "main.c"
  4918 ;; Parameters:    Size  Location     Type
  4919 ;;  input_string    1    wreg     PTR unsigned char 
  4920 ;;		 -> main@aNumber_str(20), 
  4921 ;; Auto vars:     Size  Location     Type
  4922 ;;  input_string    1    7[COMMON] PTR unsigned char 
  4923 ;;		 -> main@aNumber_str(20), 
  4924 ;;  i               1    8[COMMON] unsigned char 
  4925 ;;  size_of_stri    1    6[COMMON] unsigned char 
  4926 ;; Return value:  Size  Location     Type
  4927 ;;                  1    wreg      void 
  4928 ;; Registers used:
  4929 ;;		wreg, fsr1l, fsr1h, status,2, status,0, pclath, cstack
  4930 ;; Tracked objects:
  4931 ;;		On entry : 0/0
  4932 ;;		On exit  : 0/0
  4933 ;;		Unchanged: 0/0
  4934 ;; Data sizes:     COMMON   BANK0   BANK1   BANK2   BANK3   BANK4   BANK5   BANK6   BANK7   BANK8   BANK9  BANK10  BANK1
      +1  BANK12
  4935 ;;      Params:         0       0       0       0       0       0       0       0       0       0       0       0       
      +0       0
  4936 ;;      Locals:         3       0       0       0       0       0       0       0       0       0       0       0       
      +0       0
  4937 ;;      Temps:          1       0       0       0       0       0       0       0       0       0       0       0       
      +0       0
  4938 ;;      Totals:         4       0       0       0       0       0       0       0       0       0       0       0       
      +0       0
  4939 ;;Total ram usage:        4 bytes
  4940 ;; Hardware stack levels used:    1
  4941 ;; Hardware stack levels required when called:    2
  4942 ;; This function calls:
  4943 ;;		_TX_Command
  4944 ;;		_strlen
  4945 ;; This function is called by:
  4946 ;;		_main
  4947 ;; This function uses a non-reentrant model
  4948 ;;
  4949                           
  4950                           
  4951                           ;psect for function _TX_Whole_String
  4952  0F9F                     _TX_Whole_String:
  4953                           
  4954                           ;incstack = 0
  4955                           ; Regs used in _TX_Whole_String: [wreg+fsr1l+fsr1h+status,2+status,0+pclath+cstack]
  4956                           ;TX_Whole_String@input_string stored from wreg
  4957  0F9F  00F7               	movwf	TX_Whole_String@input_string
  4958  0FA0                     l2345:
  4959                           
  4960                           ;main.c: 133:     uint8_t size_of_string = strlen(input_string);
  4961  0FA0  0877               	movf	TX_Whole_String@input_string,w
  4962  0FA1  318F  2705  318F   	fcall	_strlen
  4963  0FA4  0870               	movf	?_strlen,w
  4964  0FA5  00F5               	movwf	??_TX_Whole_String
  4965  0FA6  0875               	movf	??_TX_Whole_String,w
  4966  0FA7  00F6               	movwf	TX_Whole_String@size_of_string
  4967  0FA8                     l2347:
  4968                           
  4969                           ;main.c: 135:     for (uint8_t i = 0; i < size_of_string; i++){
  4970  0FA8  01F8               	clrf	TX_Whole_String@i
  4971  0FA9  2FC0               	goto	l2355
  4972  0FAA                     l2349:
  4973                           
  4974                           ;main.c: 137:         TX_Command(input_string[i]);
  4975  0FAA  0878               	movf	TX_Whole_String@i,w
  4976  0FAB  0777               	addwf	TX_Whole_String@input_string,w
  4977  0FAC  00F5               	movwf	??_TX_Whole_String
  4978  0FAD  0875               	movf	??_TX_Whole_String,w
  4979  0FAE  0086               	movwf	6
  4980  0FAF  0187               	clrf	7
  4981  0FB0  0801               	movf	1,w
  4982  0FB1  318E  26C3  318F   	fcall	_TX_Command
  4983  0FB4                     l2351:
  4984                           
  4985                           ;main.c: 138:         _delay((unsigned long)((5)*(16000000/4000.0)));
  4986  0FB4  301A               	movlw	26
  4987  0FB5  00F5               	movwf	??_TX_Whole_String
  4988  0FB6  30F8               	movlw	248
  4989  0FB7                     u2687:
  4990  0FB7  0B89               	decfsz	9,f
  4991  0FB8  2FB7               	goto	u2687
  4992  0FB9  0BF5               	decfsz	??_TX_Whole_String,f
  4993  0FBA  2FB7               	goto	u2687
  4994  0FBB  3200               	nop2
  4995  0FBC                     l2353:
  4996                           
  4997                           ;main.c: 140:     }
  4998  0FBC  3001               	movlw	1
  4999  0FBD  00F5               	movwf	??_TX_Whole_String
  5000  0FBE  0875               	movf	??_TX_Whole_String,w
  5001  0FBF  07F8               	addwf	TX_Whole_String@i,f
  5002  0FC0                     l2355:
  5003  0FC0  0876               	movf	TX_Whole_String@size_of_string,w
  5004  0FC1  0278               	subwf	TX_Whole_String@i,w
  5005  0FC2  1C03               	skipc
  5006  0FC3  2FC5               	goto	u2641
  5007  0FC4  2FC6               	goto	u2640
  5008  0FC5                     u2641:
  5009  0FC5  2FAA               	goto	l2349
  5010  0FC6                     u2640:
  5011  0FC6                     l2357:
  5012                           
  5013                           ;main.c: 142:     TX_Command(10);
  5014  0FC6  300A               	movlw	10
  5015  0FC7  318E  26C3  318F   	fcall	_TX_Command
  5016  0FCA                     l265:
  5017  0FCA  0008               	return
  5018  0FCB                     __end_of_TX_Whole_String:
  5019                           
  5020                           	psect	text15
  5021  0F05                     __ptext15:	
  5022 ;; *************** function _strlen *****************
  5023 ;; Defined at:
  5024 ;;		line 5 in file "/opt/microchip/xc8/v2.31/pic/sources/c99/common/strlen.c"
  5025 ;; Parameters:    Size  Location     Type
  5026 ;;  s               1    wreg     PTR const unsigned char 
  5027 ;;		 -> main@aNumber_str(20), 
  5028 ;; Auto vars:     Size  Location     Type
  5029 ;;  s               1    4[COMMON] PTR const unsigned char 
  5030 ;;		 -> main@aNumber_str(20), 
  5031 ;;  a               1    3[COMMON] PTR const unsigned char 
  5032 ;;		 -> main@aNumber_str(20), 
  5033 ;; Return value:  Size  Location     Type
  5034 ;;                  2    0[COMMON] unsigned int 
  5035 ;; Registers used:
  5036 ;;		wreg, fsr1l, fsr1h, status,2, status,0
  5037 ;; Tracked objects:
  5038 ;;		On entry : 0/0
  5039 ;;		On exit  : 0/0
  5040 ;;		Unchanged: 0/0
  5041 ;; Data sizes:     COMMON   BANK0   BANK1   BANK2   BANK3   BANK4   BANK5   BANK6   BANK7   BANK8   BANK9  BANK10  BANK1
      +1  BANK12
  5042 ;;      Params:         2       0       0       0       0       0       0       0       0       0       0       0       
      +0       0
  5043 ;;      Locals:         2       0       0       0       0       0       0       0       0       0       0       0       
      +0       0
  5044 ;;      Temps:          1       0       0       0       0       0       0       0       0       0       0       0       
      +0       0
  5045 ;;      Totals:         5       0       0       0       0       0       0       0       0       0       0       0       
      +0       0
  5046 ;;Total ram usage:        5 bytes
  5047 ;; Hardware stack levels used:    1
  5048 ;; This function calls:
  5049 ;;		Nothing
  5050 ;; This function is called by:
  5051 ;;		_TX_Whole_String
  5052 ;; This function uses a non-reentrant model
  5053 ;;
  5054                           
  5055                           
  5056                           ;psect for function _strlen
  5057  0F05                     _strlen:
  5058                           
  5059                           ;incstack = 0
  5060                           ; Regs used in _strlen: [wreg+fsr1l+fsr1h+status,2+status,0]
  5061                           ;strlen@s stored from wreg
  5062  0F05  00F4               	movwf	strlen@s
  5063  0F06                     l2135:
  5064  0F06  0874               	movf	strlen@s,w
  5065  0F07  00F2               	movwf	??_strlen
  5066  0F08  0872               	movf	??_strlen,w
  5067  0F09  00F3               	movwf	strlen@a
  5068  0F0A  2F0F               	goto	l2139
  5069  0F0B                     l2137:
  5070  0F0B  3001               	movlw	1
  5071  0F0C  00F2               	movwf	??_strlen
  5072  0F0D  0872               	movf	??_strlen,w
  5073  0F0E  07F4               	addwf	strlen@s,f
  5074  0F0F                     l2139:
  5075  0F0F  0874               	movf	strlen@s,w
  5076  0F10  0086               	movwf	6
  5077  0F11  0187               	clrf	7
  5078  0F12  0801               	movf	1,w
  5079  0F13  1D03               	btfss	3,2
  5080  0F14  2F16               	goto	u2251
  5081  0F15  2F17               	goto	u2250
  5082  0F16                     u2251:
  5083  0F16  2F0B               	goto	l2137
  5084  0F17                     u2250:
  5085  0F17                     l2141:
  5086  0F17  0873               	movf	strlen@a,w
  5087  0F18  0274               	subwf	strlen@s,w
  5088  0F19  00F0               	movwf	?_strlen
  5089  0F1A  01F1               	clrf	?_strlen+1
  5090  0F1B  1BF0               	btfsc	?_strlen,7
  5091  0F1C  03F1               	decf	?_strlen+1,f
  5092  0F1D                     l887:
  5093  0F1D  0008               	return
  5094  0F1E                     __end_of_strlen:
  5095                           
  5096                           	psect	text16
  5097  0EC3                     __ptext16:	
  5098 ;; *************** function _TX_Command *****************
  5099 ;; Defined at:
  5100 ;;		line 147 in file "main.c"
  5101 ;; Parameters:    Size  Location     Type
  5102 ;;  txData          1    wreg     unsigned char 
  5103 ;; Auto vars:     Size  Location     Type
  5104 ;;  txData          1    1[COMMON] unsigned char 
  5105 ;; Return value:  Size  Location     Type
  5106 ;;                  1    wreg      void 
  5107 ;; Registers used:
  5108 ;;		wreg, status,2, status,0, pclath, cstack
  5109 ;; Tracked objects:
  5110 ;;		On entry : 0/0
  5111 ;;		On exit  : 0/0
  5112 ;;		Unchanged: 0/0
  5113 ;; Data sizes:     COMMON   BANK0   BANK1   BANK2   BANK3   BANK4   BANK5   BANK6   BANK7   BANK8   BANK9  BANK10  BANK1
      +1  BANK12
  5114 ;;      Params:         0       0       0       0       0       0       0       0       0       0       0       0       
      +0       0
  5115 ;;      Locals:         1       0       0       0       0       0       0       0       0       0       0       0       
      +0       0
  5116 ;;      Temps:          0       0       0       0       0       0       0       0       0       0       0       0       
      +0       0
  5117 ;;      Totals:         1       0       0       0       0       0       0       0       0       0       0       0       
      +0       0
  5118 ;;Total ram usage:        1 bytes
  5119 ;; Hardware stack levels used:    1
  5120 ;; Hardware stack levels required when called:    1
  5121 ;; This function calls:
  5122 ;;		_EUSART_Write
  5123 ;;		_EUSART_is_tx_ready
  5124 ;; This function is called by:
  5125 ;;		_TX_Whole_String
  5126 ;; This function uses a non-reentrant model
  5127 ;;
  5128                           
  5129                           
  5130                           ;psect for function _TX_Command
  5131  0EC3                     _TX_Command:
  5132                           
  5133                           ;incstack = 0
  5134                           ; Regs used in _TX_Command: [wreg+status,2+status,0+pclath+cstack]
  5135                           ;TX_Command@txData stored from wreg
  5136  0EC3  00F1               	movwf	TX_Command@txData
  5137  0EC4                     l2145:
  5138                           
  5139                           ;main.c: 149:     if (EUSART_is_tx_ready()) {
  5140  0EC4  318E  26D1  318E   	fcall	_EUSART_is_tx_ready
  5141  0EC7  3A00               	xorlw	0
  5142  0EC8  1903               	skipnz
  5143  0EC9  2ECB               	goto	u2261
  5144  0ECA  2ECC               	goto	u2260
  5145  0ECB                     u2261:
  5146  0ECB  2ED0               	goto	l269
  5147  0ECC                     u2260:
  5148  0ECC                     l2147:
  5149                           
  5150                           ;main.c: 151:         EUSART_Write(txData);
  5151  0ECC  0871               	movf	TX_Command@txData,w
  5152  0ECD  318E  26AD  318E   	fcall	_EUSART_Write
  5153  0ED0                     l269:
  5154  0ED0  0008               	return
  5155  0ED1                     __end_of_TX_Command:
  5156                           
  5157                           	psect	text17
  5158  0ED1                     __ptext17:	
  5159 ;; *************** function _EUSART_is_tx_ready *****************
  5160 ;; Defined at:
  5161 ;;		line 94 in file "mcc_generated_files/eusart.c"
  5162 ;; Parameters:    Size  Location     Type
  5163 ;;		None
  5164 ;; Auto vars:     Size  Location     Type
  5165 ;;		None
  5166 ;; Return value:  Size  Location     Type
  5167 ;;                  1    wreg      _Bool 
  5168 ;; Registers used:
  5169 ;;		wreg, status,2
  5170 ;; Tracked objects:
  5171 ;;		On entry : 0/0
  5172 ;;		On exit  : 0/0
  5173 ;;		Unchanged: 0/0
  5174 ;; Data sizes:     COMMON   BANK0   BANK1   BANK2   BANK3   BANK4   BANK5   BANK6   BANK7   BANK8   BANK9  BANK10  BANK1
      +1  BANK12
  5175 ;;      Params:         0       0       0       0       0       0       0       0       0       0       0       0       
      +0       0
  5176 ;;      Locals:         1       0       0       0       0       0       0       0       0       0       0       0       
      +0       0
  5177 ;;      Temps:          0       0       0       0       0       0       0       0       0       0       0       0       
      +0       0
  5178 ;;      Totals:         1       0       0       0       0       0       0       0       0       0       0       0       
      +0       0
  5179 ;;Total ram usage:        1 bytes
  5180 ;; Hardware stack levels used:    1
  5181 ;; This function calls:
  5182 ;;		Nothing
  5183 ;; This function is called by:
  5184 ;;		_TX_Command
  5185 ;; This function uses a non-reentrant model
  5186 ;;
  5187                           
  5188                           
  5189                           ;psect for function _EUSART_is_tx_ready
  5190  0ED1                     _EUSART_is_tx_ready:
  5191  0ED1                     l1675:	
  5192                           ;incstack = 0
  5193                           ; Regs used in _EUSART_is_tx_ready: [wreg+status,2]
  5194                           
  5195                           
  5196                           ;mcc_generated_files/eusart.c: 96:     return (_Bool)(PIR1bits.TXIF && TXSTAbits.TXEN);
  5197  0ED1  01F0               	clrf	_EUSART_is_tx_ready$355
  5198  0ED2                     l1677:
  5199  0ED2  0020               	movlb	0	; select bank0
  5200  0ED3  1E11               	btfss	17,4	;volatile
  5201  0ED4  2ED6               	goto	u1371
  5202  0ED5  2ED7               	goto	u1370
  5203  0ED6                     u1371:
  5204  0ED6  2EDE               	goto	l1683
  5205  0ED7                     u1370:
  5206  0ED7                     l1679:
  5207  0ED7  0023               	movlb	3	; select bank3
  5208  0ED8  1E9E               	btfss	30,5	;volatile
  5209  0ED9  2EDB               	goto	u1381
  5210  0EDA  2EDC               	goto	u1380
  5211  0EDB                     u1381:
  5212  0EDB  2EDE               	goto	l1683
  5213  0EDC                     u1380:
  5214  0EDC                     l1681:
  5215  0EDC  01F0               	clrf	_EUSART_is_tx_ready$355
  5216  0EDD  0AF0               	incf	_EUSART_is_tx_ready$355,f
  5217  0EDE                     l1683:
  5218  0EDE  0870               	movf	_EUSART_is_tx_ready$355,w
  5219  0EDF                     l172:
  5220  0EDF  0008               	return
  5221  0EE0                     __end_of_EUSART_is_tx_ready:
  5222                           
  5223                           	psect	text18
  5224  0EAD                     __ptext18:	
  5225 ;; *************** function _EUSART_Write *****************
  5226 ;; Defined at:
  5227 ;;		line 132 in file "mcc_generated_files/eusart.c"
  5228 ;; Parameters:    Size  Location     Type
  5229 ;;  txData          1    wreg     unsigned char 
  5230 ;; Auto vars:     Size  Location     Type
  5231 ;;  txData          1    0[COMMON] unsigned char 
  5232 ;; Return value:  Size  Location     Type
  5233 ;;                  1    wreg      void 
  5234 ;; Registers used:
  5235 ;;		wreg
  5236 ;; Tracked objects:
  5237 ;;		On entry : 0/0
  5238 ;;		On exit  : 0/0
  5239 ;;		Unchanged: 0/0
  5240 ;; Data sizes:     COMMON   BANK0   BANK1   BANK2   BANK3   BANK4   BANK5   BANK6   BANK7   BANK8   BANK9  BANK10  BANK1
      +1  BANK12
  5241 ;;      Params:         0       0       0       0       0       0       0       0       0       0       0       0       
      +0       0
  5242 ;;      Locals:         1       0       0       0       0       0       0       0       0       0       0       0       
      +0       0
  5243 ;;      Temps:          0       0       0       0       0       0       0       0       0       0       0       0       
      +0       0
  5244 ;;      Totals:         1       0       0       0       0       0       0       0       0       0       0       0       
      +0       0
  5245 ;;Total ram usage:        1 bytes
  5246 ;; Hardware stack levels used:    1
  5247 ;; This function calls:
  5248 ;;		Nothing
  5249 ;; This function is called by:
  5250 ;;		_TX_Command
  5251 ;; This function uses a non-reentrant model
  5252 ;;
  5253                           
  5254                           
  5255                           ;psect for function _EUSART_Write
  5256  0EAD                     _EUSART_Write:
  5257                           
  5258                           ;incstack = 0
  5259                           ; Regs used in _EUSART_Write: [wreg]
  5260                           ;EUSART_Write@txData stored from wreg
  5261  0EAD  00F0               	movwf	EUSART_Write@txData
  5262  0EAE                     l1687:
  5263  0EAE                     l191:	
  5264                           ;mcc_generated_files/eusart.c: 135:     {;mcc_generated_files/eusart.c: 136:     }
  5265                           
  5266                           
  5267                           ;mcc_generated_files/eusart.c: 134:     while(0 == PIR1bits.TXIF)
  5268  0EAE  0020               	movlb	0	; select bank0
  5269  0EAF  1E11               	btfss	17,4	;volatile
  5270  0EB0  2EB2               	goto	u1391
  5271  0EB1  2EB3               	goto	u1390
  5272  0EB2                     u1391:
  5273  0EB2  2EAE               	goto	l191
  5274  0EB3                     u1390:
  5275  0EB3                     l1689:
  5276                           
  5277                           ;mcc_generated_files/eusart.c: 138:     TXREG = txData;
  5278  0EB3  0870               	movf	EUSART_Write@txData,w
  5279  0EB4  0023               	movlb	3	; select bank3
  5280  0EB5  009A               	movwf	26	;volatile
  5281  0EB6                     l194:
  5282  0EB6  0008               	return
  5283  0EB7                     __end_of_EUSART_Write:
  5284                           
  5285                           	psect	text19
  5286  0EE0                     __ptext19:	
  5287 ;; *************** function _SYSTEM_Initialize *****************
  5288 ;; Defined at:
  5289 ;;		line 50 in file "mcc_generated_files/mcc.c"
  5290 ;; Parameters:    Size  Location     Type
  5291 ;;		None
  5292 ;; Auto vars:     Size  Location     Type
  5293 ;;		None
  5294 ;; Return value:  Size  Location     Type
  5295 ;;                  1    wreg      void 
  5296 ;; Registers used:
  5297 ;;		wreg, status,2, status,0, pclath, cstack
  5298 ;; Tracked objects:
  5299 ;;		On entry : 0/0
  5300 ;;		On exit  : 0/0
  5301 ;;		Unchanged: 0/0
  5302 ;; Data sizes:     COMMON   BANK0   BANK1   BANK2   BANK3   BANK4   BANK5   BANK6   BANK7   BANK8   BANK9  BANK10  BANK1
      +1  BANK12
  5303 ;;      Params:         0       0       0       0       0       0       0       0       0       0       0       0       
      +0       0
  5304 ;;      Locals:         0       0       0       0       0       0       0       0       0       0       0       0       
      +0       0
  5305 ;;      Temps:          0       0       0       0       0       0       0       0       0       0       0       0       
      +0       0
  5306 ;;      Totals:         0       0       0       0       0       0       0       0       0       0       0       0       
      +0       0
  5307 ;;Total ram usage:        0 bytes
  5308 ;; Hardware stack levels used:    1
  5309 ;; Hardware stack levels required when called:    2
  5310 ;; This function calls:
  5311 ;;		_EUSART_Initialize
  5312 ;;		_OSCILLATOR_Initialize
  5313 ;;		_PIN_MANAGER_Initialize
  5314 ;;		_SPI1_Initialize
  5315 ;;		_WDT_Initialize
  5316 ;; This function is called by:
  5317 ;;		_main
  5318 ;; This function uses a non-reentrant model
  5319 ;;
  5320                           
  5321                           
  5322                           ;psect for function _SYSTEM_Initialize
  5323  0EE0                     _SYSTEM_Initialize:
  5324  0EE0                     l2331:	
  5325                           ;incstack = 0
  5326                           ; Regs used in _SYSTEM_Initialize: [wreg+status,2+status,0+pclath+cstack]
  5327                           
  5328                           
  5329                           ;mcc_generated_files/mcc.c: 53:     SPI1_Initialize();
  5330  0EE0  318E  26B7  318E   	fcall	_SPI1_Initialize
  5331                           
  5332                           ;mcc_generated_files/mcc.c: 54:     PIN_MANAGER_Initialize();
  5333  0EE3  318F  271E  318E   	fcall	_PIN_MANAGER_Initialize
  5334                           
  5335                           ;mcc_generated_files/mcc.c: 55:     OSCILLATOR_Initialize();
  5336  0EE6  3180  2005  318E   	fcall	_OSCILLATOR_Initialize
  5337                           
  5338                           ;mcc_generated_files/mcc.c: 56:     WDT_Initialize();
  5339  0EE9  318E  2697  318E   	fcall	_WDT_Initialize
  5340                           
  5341                           ;mcc_generated_files/mcc.c: 57:     EUSART_Initialize();
  5342  0EEC  318F  2759  318E   	fcall	_EUSART_Initialize
  5343  0EEF                     l21:
  5344  0EEF  0008               	return
  5345  0EF0                     __end_of_SYSTEM_Initialize:
  5346                           
  5347                           	psect	text20
  5348  0E97                     __ptext20:	
  5349 ;; *************** function _WDT_Initialize *****************
  5350 ;; Defined at:
  5351 ;;		line 70 in file "mcc_generated_files/mcc.c"
  5352 ;; Parameters:    Size  Location     Type
  5353 ;;		None
  5354 ;; Auto vars:     Size  Location     Type
  5355 ;;		None
  5356 ;; Return value:  Size  Location     Type
  5357 ;;                  1    wreg      void 
  5358 ;; Registers used:
  5359 ;;		wreg
  5360 ;; Tracked objects:
  5361 ;;		On entry : 0/0
  5362 ;;		On exit  : 0/0
  5363 ;;		Unchanged: 0/0
  5364 ;; Data sizes:     COMMON   BANK0   BANK1   BANK2   BANK3   BANK4   BANK5   BANK6   BANK7   BANK8   BANK9  BANK10  BANK1
      +1  BANK12
  5365 ;;      Params:         0       0       0       0       0       0       0       0       0       0       0       0       
      +0       0
  5366 ;;      Locals:         0       0       0       0       0       0       0       0       0       0       0       0       
      +0       0
  5367 ;;      Temps:          0       0       0       0       0       0       0       0       0       0       0       0       
      +0       0
  5368 ;;      Totals:         0       0       0       0       0       0       0       0       0       0       0       0       
      +0       0
  5369 ;;Total ram usage:        0 bytes
  5370 ;; Hardware stack levels used:    1
  5371 ;; This function calls:
  5372 ;;		Nothing
  5373 ;; This function is called by:
  5374 ;;		_SYSTEM_Initialize
  5375 ;; This function uses a non-reentrant model
  5376 ;;
  5377                           
  5378                           
  5379                           ;psect for function _WDT_Initialize
  5380  0E97                     _WDT_Initialize:
  5381  0E97                     l2087:	
  5382                           ;incstack = 0
  5383                           ; Regs used in _WDT_Initialize: [wreg]
  5384                           
  5385                           
  5386                           ;mcc_generated_files/mcc.c: 73:     WDTCON = 0x16;
  5387  0E97  3016               	movlw	22
  5388  0E98  0021               	movlb	1	; select bank1
  5389  0E99  0097               	movwf	23	;volatile
  5390  0E9A                     l27:
  5391  0E9A  0008               	return
  5392  0E9B                     __end_of_WDT_Initialize:
  5393                           
  5394                           	psect	text21
  5395  0EB7                     __ptext21:	
  5396 ;; *************** function _SPI1_Initialize *****************
  5397 ;; Defined at:
  5398 ;;		line 62 in file "mcc_generated_files/spi1.c"
  5399 ;; Parameters:    Size  Location     Type
  5400 ;;		None
  5401 ;; Auto vars:     Size  Location     Type
  5402 ;;		None
  5403 ;; Return value:  Size  Location     Type
  5404 ;;                  1    wreg      void 
  5405 ;; Registers used:
  5406 ;;		wreg
  5407 ;; Tracked objects:
  5408 ;;		On entry : 0/0
  5409 ;;		On exit  : 0/0
  5410 ;;		Unchanged: 0/0
  5411 ;; Data sizes:     COMMON   BANK0   BANK1   BANK2   BANK3   BANK4   BANK5   BANK6   BANK7   BANK8   BANK9  BANK10  BANK1
      +1  BANK12
  5412 ;;      Params:         0       0       0       0       0       0       0       0       0       0       0       0       
      +0       0
  5413 ;;      Locals:         0       0       0       0       0       0       0       0       0       0       0       0       
      +0       0
  5414 ;;      Temps:          0       0       0       0       0       0       0       0       0       0       0       0       
      +0       0
  5415 ;;      Totals:         0       0       0       0       0       0       0       0       0       0       0       0       
      +0       0
  5416 ;;Total ram usage:        0 bytes
  5417 ;; Hardware stack levels used:    1
  5418 ;; This function calls:
  5419 ;;		Nothing
  5420 ;; This function is called by:
  5421 ;;		_SYSTEM_Initialize
  5422 ;; This function uses a non-reentrant model
  5423 ;;
  5424                           
  5425                           
  5426                           ;psect for function _SPI1_Initialize
  5427  0EB7                     _SPI1_Initialize:
  5428  0EB7                     l2051:	
  5429                           ;incstack = 0
  5430                           ; Regs used in _SPI1_Initialize: [wreg]
  5431                           
  5432                           
  5433                           ;mcc_generated_files/spi1.c: 65:     SSP1STAT = 0x40;
  5434  0EB7  3040               	movlw	64
  5435  0EB8  0024               	movlb	4	; select bank4
  5436  0EB9  0094               	movwf	20	;volatile
  5437                           
  5438                           ;mcc_generated_files/spi1.c: 66:     SSP1CON1 = 0x01;
  5439  0EBA  3001               	movlw	1
  5440  0EBB  0095               	movwf	21	;volatile
  5441                           
  5442                           ;mcc_generated_files/spi1.c: 67:     SSP1ADD = 0x01;
  5443  0EBC  3001               	movlw	1
  5444  0EBD  0092               	movwf	18	;volatile
  5445  0EBE                     l2053:
  5446                           
  5447                           ;mcc_generated_files/spi1.c: 68:     TRISBbits.TRISB6 = 0;
  5448  0EBE  0021               	movlb	1	; select bank1
  5449  0EBF  130D               	bcf	13,6	;volatile
  5450  0EC0                     l2055:
  5451                           
  5452                           ;mcc_generated_files/spi1.c: 69:     SSP1CON1bits.SSPEN = 0;
  5453  0EC0  0024               	movlb	4	; select bank4
  5454  0EC1  1295               	bcf	21,5	;volatile
  5455  0EC2                     l84:
  5456  0EC2  0008               	return
  5457  0EC3                     __end_of_SPI1_Initialize:
  5458                           
  5459                           	psect	text22
  5460  0F1E                     __ptext22:	
  5461 ;; *************** function _PIN_MANAGER_Initialize *****************
  5462 ;; Defined at:
  5463 ;;		line 55 in file "mcc_generated_files/pin_manager.c"
  5464 ;; Parameters:    Size  Location     Type
  5465 ;;		None
  5466 ;; Auto vars:     Size  Location     Type
  5467 ;;		None
  5468 ;; Return value:  Size  Location     Type
  5469 ;;                  1    wreg      void 
  5470 ;; Registers used:
  5471 ;;		wreg, status,2
  5472 ;; Tracked objects:
  5473 ;;		On entry : 0/0
  5474 ;;		On exit  : 0/0
  5475 ;;		Unchanged: 0/0
  5476 ;; Data sizes:     COMMON   BANK0   BANK1   BANK2   BANK3   BANK4   BANK5   BANK6   BANK7   BANK8   BANK9  BANK10  BANK1
      +1  BANK12
  5477 ;;      Params:         0       0       0       0       0       0       0       0       0       0       0       0       
      +0       0
  5478 ;;      Locals:         0       0       0       0       0       0       0       0       0       0       0       0       
      +0       0
  5479 ;;      Temps:          0       0       0       0       0       0       0       0       0       0       0       0       
      +0       0
  5480 ;;      Totals:         0       0       0       0       0       0       0       0       0       0       0       0       
      +0       0
  5481 ;;Total ram usage:        0 bytes
  5482 ;; Hardware stack levels used:    1
  5483 ;; This function calls:
  5484 ;;		Nothing
  5485 ;; This function is called by:
  5486 ;;		_SYSTEM_Initialize
  5487 ;; This function uses a non-reentrant model
  5488 ;;
  5489                           
  5490                           
  5491                           ;psect for function _PIN_MANAGER_Initialize
  5492  0F1E                     _PIN_MANAGER_Initialize:
  5493  0F1E                     l2057:	
  5494                           ;incstack = 0
  5495                           ; Regs used in _PIN_MANAGER_Initialize: [wreg+status,2]
  5496                           
  5497                           
  5498                           ;mcc_generated_files/pin_manager.c: 60:     LATA = 0x00;
  5499  0F1E  0022               	movlb	2	; select bank2
  5500  0F1F  018C               	clrf	12	;volatile
  5501                           
  5502                           ;mcc_generated_files/pin_manager.c: 61:     LATB = 0x00;
  5503  0F20  018D               	clrf	13	;volatile
  5504                           
  5505                           ;mcc_generated_files/pin_manager.c: 62:     LATC = 0x00;
  5506  0F21  018E               	clrf	14	;volatile
  5507  0F22                     l2059:
  5508                           
  5509                           ;mcc_generated_files/pin_manager.c: 67:     TRISA = 0x3F;
  5510  0F22  303F               	movlw	63
  5511  0F23  0021               	movlb	1	; select bank1
  5512  0F24  008C               	movwf	12	;volatile
  5513  0F25                     l2061:
  5514                           
  5515                           ;mcc_generated_files/pin_manager.c: 68:     TRISB = 0xB0;
  5516  0F25  30B0               	movlw	176
  5517  0F26  008D               	movwf	13	;volatile
  5518  0F27                     l2063:
  5519                           
  5520                           ;mcc_generated_files/pin_manager.c: 69:     TRISC = 0x7B;
  5521  0F27  307B               	movlw	123
  5522  0F28  008E               	movwf	14	;volatile
  5523  0F29                     l2065:
  5524                           
  5525                           ;mcc_generated_files/pin_manager.c: 74:     ANSELC = 0x4F;
  5526  0F29  304F               	movlw	79
  5527  0F2A  0023               	movlb	3	; select bank3
  5528  0F2B  008E               	movwf	14	;volatile
  5529                           
  5530                           ;mcc_generated_files/pin_manager.c: 75:     ANSELB = 0x00;
  5531  0F2C  018D               	clrf	13	;volatile
  5532  0F2D                     l2067:
  5533                           
  5534                           ;mcc_generated_files/pin_manager.c: 76:     ANSELA = 0x17;
  5535  0F2D  3017               	movlw	23
  5536  0F2E  008C               	movwf	12	;volatile
  5537  0F2F                     l2069:
  5538                           
  5539                           ;mcc_generated_files/pin_manager.c: 81:     WPUB = 0x00;
  5540  0F2F  0024               	movlb	4	; select bank4
  5541  0F30  018D               	clrf	13	;volatile
  5542  0F31                     l2071:
  5543                           
  5544                           ;mcc_generated_files/pin_manager.c: 82:     WPUA = 0x00;
  5545  0F31  018C               	clrf	12	;volatile
  5546  0F32                     l2073:
  5547                           
  5548                           ;mcc_generated_files/pin_manager.c: 83:     WPUC = 0x00;
  5549  0F32  018E               	clrf	14	;volatile
  5550  0F33                     l2075:
  5551                           
  5552                           ;mcc_generated_files/pin_manager.c: 84:     OPTION_REGbits.nWPUEN = 1;
  5553  0F33  0021               	movlb	1	; select bank1
  5554  0F34  1795               	bsf	21,7	;volatile
  5555  0F35                     l2077:
  5556                           
  5557                           ;mcc_generated_files/pin_manager.c: 90:     APFCON0 = 0x00;
  5558  0F35  0022               	movlb	2	; select bank2
  5559  0F36  019D               	clrf	29	;volatile
  5560  0F37                     l2079:
  5561                           
  5562                           ;mcc_generated_files/pin_manager.c: 91:     APFCON1 = 0x00;
  5563  0F37  019E               	clrf	30	;volatile
  5564  0F38                     l60:
  5565  0F38  0008               	return
  5566  0F39                     __end_of_PIN_MANAGER_Initialize:
  5567                           
  5568                           	psect	text23
  5569  0005                     __ptext23:	
  5570 ;; *************** function _OSCILLATOR_Initialize *****************
  5571 ;; Defined at:
  5572 ;;		line 60 in file "mcc_generated_files/mcc.c"
  5573 ;; Parameters:    Size  Location     Type
  5574 ;;		None
  5575 ;; Auto vars:     Size  Location     Type
  5576 ;;		None
  5577 ;; Return value:  Size  Location     Type
  5578 ;;                  1    wreg      void 
  5579 ;; Registers used:
  5580 ;;		wreg, status,2
  5581 ;; Tracked objects:
  5582 ;;		On entry : 0/0
  5583 ;;		On exit  : 0/0
  5584 ;;		Unchanged: 0/0
  5585 ;; Data sizes:     COMMON   BANK0   BANK1   BANK2   BANK3   BANK4   BANK5   BANK6   BANK7   BANK8   BANK9  BANK10  BANK1
      +1  BANK12
  5586 ;;      Params:         0       0       0       0       0       0       0       0       0       0       0       0       
      +0       0
  5587 ;;      Locals:         0       0       0       0       0       0       0       0       0       0       0       0       
      +0       0
  5588 ;;      Temps:          0       0       0       0       0       0       0       0       0       0       0       0       
      +0       0
  5589 ;;      Totals:         0       0       0       0       0       0       0       0       0       0       0       0       
      +0       0
  5590 ;;Total ram usage:        0 bytes
  5591 ;; Hardware stack levels used:    1
  5592 ;; This function calls:
  5593 ;;		Nothing
  5594 ;; This function is called by:
  5595 ;;		_SYSTEM_Initialize
  5596 ;; This function uses a non-reentrant model
  5597 ;;
  5598                           
  5599                           
  5600                           ;psect for function _OSCILLATOR_Initialize
  5601  0005                     _OSCILLATOR_Initialize:
  5602  0005                     l2081:	
  5603                           ;incstack = 0
  5604                           ; Regs used in _OSCILLATOR_Initialize: [wreg+status,2]
  5605                           
  5606                           
  5607                           ;mcc_generated_files/mcc.c: 63:     OSCCON = 0x78;
  5608  0005  3078               	movlw	120
  5609  0006  0021               	movlb	1	; select bank1
  5610  0007  0099               	movwf	25	;volatile
  5611  0008                     l2083:
  5612                           
  5613                           ;mcc_generated_files/mcc.c: 65:     OSCTUNE = 0x00;
  5614  0008  0198               	clrf	24	;volatile
  5615  0009                     l2085:
  5616                           
  5617                           ;mcc_generated_files/mcc.c: 67:     BORCON = 0x00;
  5618  0009  0022               	movlb	2	; select bank2
  5619  000A  0196               	clrf	22	;volatile
  5620  000B                     l24:
  5621  000B  0008               	return
  5622  000C                     __end_of_OSCILLATOR_Initialize:
  5623                           
  5624                           	psect	text24
  5625  0F59                     __ptext24:	
  5626 ;; *************** function _EUSART_Initialize *****************
  5627 ;; Defined at:
  5628 ;;		line 66 in file "mcc_generated_files/eusart.c"
  5629 ;; Parameters:    Size  Location     Type
  5630 ;;		None
  5631 ;; Auto vars:     Size  Location     Type
  5632 ;;		None
  5633 ;; Return value:  Size  Location     Type
  5634 ;;                  1    wreg      void 
  5635 ;; Registers used:
  5636 ;;		wreg, status,2, status,0, pclath, cstack
  5637 ;; Tracked objects:
  5638 ;;		On entry : 0/0
  5639 ;;		On exit  : 0/0
  5640 ;;		Unchanged: 0/0
  5641 ;; Data sizes:     COMMON   BANK0   BANK1   BANK2   BANK3   BANK4   BANK5   BANK6   BANK7   BANK8   BANK9  BANK10  BANK1
      +1  BANK12
  5642 ;;      Params:         0       0       0       0       0       0       0       0       0       0       0       0       
      +0       0
  5643 ;;      Locals:         0       0       0       0       0       0       0       0       0       0       0       0       
      +0       0
  5644 ;;      Temps:          0       0       0       0       0       0       0       0       0       0       0       0       
      +0       0
  5645 ;;      Totals:         0       0       0       0       0       0       0       0       0       0       0       0       
      +0       0
  5646 ;;Total ram usage:        0 bytes
  5647 ;; Hardware stack levels used:    1
  5648 ;; Hardware stack levels required when called:    1
  5649 ;; This function calls:
  5650 ;;		_EUSART_SetErrorHandler
  5651 ;;		_EUSART_SetFramingErrorHandler
  5652 ;;		_EUSART_SetOverrunErrorHandler
  5653 ;; This function is called by:
  5654 ;;		_SYSTEM_Initialize
  5655 ;; This function uses a non-reentrant model
  5656 ;;
  5657                           
  5658                           
  5659                           ;psect for function _EUSART_Initialize
  5660  0F59                     _EUSART_Initialize:
  5661  0F59                     l2089:	
  5662                           ;incstack = 0
  5663                           ; Regs used in _EUSART_Initialize: [wreg+status,2+status,0+pclath+cstack]
  5664                           
  5665                           
  5666                           ;mcc_generated_files/eusart.c: 71:     BAUDCON = 0x08;
  5667  0F59  3008               	movlw	8
  5668  0F5A  0023               	movlb	3	; select bank3
  5669  0F5B  009F               	movwf	31	;volatile
  5670                           
  5671                           ;mcc_generated_files/eusart.c: 74:     RCSTA = 0x90;
  5672  0F5C  3090               	movlw	144
  5673  0F5D  009D               	movwf	29	;volatile
  5674                           
  5675                           ;mcc_generated_files/eusart.c: 77:     TXSTA = 0x24;
  5676  0F5E  3024               	movlw	36
  5677  0F5F  009E               	movwf	30	;volatile
  5678                           
  5679                           ;mcc_generated_files/eusart.c: 80:     SPBRGL = 0xA0;
  5680  0F60  30A0               	movlw	160
  5681  0F61  009B               	movwf	27	;volatile
  5682                           
  5683                           ;mcc_generated_files/eusart.c: 83:     SPBRGH = 0x01;
  5684  0F62  3001               	movlw	1
  5685  0F63  009C               	movwf	28	;volatile
  5686  0F64                     l2091:
  5687                           
  5688                           ;mcc_generated_files/eusart.c: 86:     EUSART_SetFramingErrorHandler(EUSART_DefaultFrami
      +                          ngErrorHandler);
  5689  0F64  3000               	movlw	0
  5690  0F65  00F0               	movwf	EUSART_SetFramingErrorHandler@interruptHandler
  5691  0F66  3000               	movlw	0
  5692  0F67  00F1               	movwf	EUSART_SetFramingErrorHandler@interruptHandler+1
  5693  0F68  318E  26A1  318F   	fcall	_EUSART_SetFramingErrorHandler
  5694  0F6B                     l2093:
  5695                           
  5696                           ;mcc_generated_files/eusart.c: 87:     EUSART_SetOverrunErrorHandler(EUSART_DefaultOverr
      +                          unErrorHandler);
  5697  0F6B  3000               	movlw	0
  5698  0F6C  00F0               	movwf	EUSART_SetOverrunErrorHandler@interruptHandler
  5699  0F6D  3000               	movlw	0
  5700  0F6E  00F1               	movwf	EUSART_SetOverrunErrorHandler@interruptHandler+1
  5701  0F6F  318E  26A7  318F   	fcall	_EUSART_SetOverrunErrorHandler
  5702  0F72                     l2095:
  5703                           
  5704                           ;mcc_generated_files/eusart.c: 88:     EUSART_SetErrorHandler(EUSART_DefaultErrorHandler
      +                          );
  5705  0F72  3000               	movlw	0
  5706  0F73  00F0               	movwf	EUSART_SetErrorHandler@interruptHandler
  5707  0F74  3000               	movlw	0
  5708  0F75  00F1               	movwf	EUSART_SetErrorHandler@interruptHandler+1
  5709  0F76  318E  269B  318F   	fcall	_EUSART_SetErrorHandler
  5710  0F79                     l2097:
  5711                           
  5712                           ;mcc_generated_files/eusart.c: 90:     eusartRxLastError.status = 0;
  5713  0F79  0020               	movlb	0	; select bank0
  5714  0F7A  01EE               	clrf	_eusartRxLastError	;volatile
  5715  0F7B                     l167:
  5716  0F7B  0008               	return
  5717  0F7C                     __end_of_EUSART_Initialize:
  5718                           
  5719                           	psect	text25
  5720  0EA7                     __ptext25:	
  5721 ;; *************** function _EUSART_SetOverrunErrorHandler *****************
  5722 ;; Defined at:
  5723 ;;		line 161 in file "mcc_generated_files/eusart.c"
  5724 ;; Parameters:    Size  Location     Type
  5725 ;;  interruptHan    2    0[COMMON] PTR FTN()void 
  5726 ;;		 -> EUSART_DefaultOverrunErrorHandler(1), 
  5727 ;; Auto vars:     Size  Location     Type
  5728 ;;		None
  5729 ;; Return value:  Size  Location     Type
  5730 ;;                  1    wreg      void 
  5731 ;; Registers used:
  5732 ;;		wreg
  5733 ;; Tracked objects:
  5734 ;;		On entry : 0/0
  5735 ;;		On exit  : 0/0
  5736 ;;		Unchanged: 0/0
  5737 ;; Data sizes:     COMMON   BANK0   BANK1   BANK2   BANK3   BANK4   BANK5   BANK6   BANK7   BANK8   BANK9  BANK10  BANK1
      +1  BANK12
  5738 ;;      Params:         2       0       0       0       0       0       0       0       0       0       0       0       
      +0       0
  5739 ;;      Locals:         0       0       0       0       0       0       0       0       0       0       0       0       
      +0       0
  5740 ;;      Temps:          0       0       0       0       0       0       0       0       0       0       0       0       
      +0       0
  5741 ;;      Totals:         2       0       0       0       0       0       0       0       0       0       0       0       
      +0       0
  5742 ;;Total ram usage:        2 bytes
  5743 ;; Hardware stack levels used:    1
  5744 ;; This function calls:
  5745 ;;		Nothing
  5746 ;; This function is called by:
  5747 ;;		_EUSART_Initialize
  5748 ;; This function uses a non-reentrant model
  5749 ;;
  5750                           
  5751                           
  5752                           ;psect for function _EUSART_SetOverrunErrorHandler
  5753  0EA7                     _EUSART_SetOverrunErrorHandler:
  5754  0EA7                     l1671:	
  5755                           ;incstack = 0
  5756                           ; Regs used in _EUSART_SetOverrunErrorHandler: [wreg]
  5757                           
  5758                           
  5759                           ;mcc_generated_files/eusart.c: 162:     EUSART_OverrunErrorHandler = interruptHandler;
  5760  0EA7  0871               	movf	EUSART_SetOverrunErrorHandler@interruptHandler+1,w
  5761  0EA8  0021               	movlb	1	; select bank1
  5762  0EA9  00A3               	movwf	(_EUSART_OverrunErrorHandler+1)^(0+128)
  5763  0EAA  0870               	movf	EUSART_SetOverrunErrorHandler@interruptHandler,w
  5764  0EAB  00A2               	movwf	_EUSART_OverrunErrorHandler^(0+128)
  5765  0EAC                     l209:
  5766  0EAC  0008               	return
  5767  0EAD                     __end_of_EUSART_SetOverrunErrorHandler:
  5768                           
  5769                           	psect	text26
  5770  0EA1                     __ptext26:	
  5771 ;; *************** function _EUSART_SetFramingErrorHandler *****************
  5772 ;; Defined at:
  5773 ;;		line 157 in file "mcc_generated_files/eusart.c"
  5774 ;; Parameters:    Size  Location     Type
  5775 ;;  interruptHan    2    0[COMMON] PTR FTN()void 
  5776 ;;		 -> EUSART_DefaultFramingErrorHandler(1), 
  5777 ;; Auto vars:     Size  Location     Type
  5778 ;;		None
  5779 ;; Return value:  Size  Location     Type
  5780 ;;                  1    wreg      void 
  5781 ;; Registers used:
  5782 ;;		wreg
  5783 ;; Tracked objects:
  5784 ;;		On entry : 0/0
  5785 ;;		On exit  : 0/0
  5786 ;;		Unchanged: 0/0
  5787 ;; Data sizes:     COMMON   BANK0   BANK1   BANK2   BANK3   BANK4   BANK5   BANK6   BANK7   BANK8   BANK9  BANK10  BANK1
      +1  BANK12
  5788 ;;      Params:         2       0       0       0       0       0       0       0       0       0       0       0       
      +0       0
  5789 ;;      Locals:         0       0       0       0       0       0       0       0       0       0       0       0       
      +0       0
  5790 ;;      Temps:          0       0       0       0       0       0       0       0       0       0       0       0       
      +0       0
  5791 ;;      Totals:         2       0       0       0       0       0       0       0       0       0       0       0       
      +0       0
  5792 ;;Total ram usage:        2 bytes
  5793 ;; Hardware stack levels used:    1
  5794 ;; This function calls:
  5795 ;;		Nothing
  5796 ;; This function is called by:
  5797 ;;		_EUSART_Initialize
  5798 ;; This function uses a non-reentrant model
  5799 ;;
  5800                           
  5801                           
  5802                           ;psect for function _EUSART_SetFramingErrorHandler
  5803  0EA1                     _EUSART_SetFramingErrorHandler:
  5804  0EA1                     l1669:	
  5805                           ;incstack = 0
  5806                           ; Regs used in _EUSART_SetFramingErrorHandler: [wreg]
  5807                           
  5808                           
  5809                           ;mcc_generated_files/eusart.c: 158:     EUSART_FramingErrorHandler = interruptHandler;
  5810  0EA1  0871               	movf	EUSART_SetFramingErrorHandler@interruptHandler+1,w
  5811  0EA2  0021               	movlb	1	; select bank1
  5812  0EA3  00A5               	movwf	(_EUSART_FramingErrorHandler+1)^(0+128)
  5813  0EA4  0870               	movf	EUSART_SetFramingErrorHandler@interruptHandler,w
  5814  0EA5  00A4               	movwf	_EUSART_FramingErrorHandler^(0+128)
  5815  0EA6                     l206:
  5816  0EA6  0008               	return
  5817  0EA7                     __end_of_EUSART_SetFramingErrorHandler:
  5818                           
  5819                           	psect	text27
  5820  0E9B                     __ptext27:	
  5821 ;; *************** function _EUSART_SetErrorHandler *****************
  5822 ;; Defined at:
  5823 ;;		line 165 in file "mcc_generated_files/eusart.c"
  5824 ;; Parameters:    Size  Location     Type
  5825 ;;  interruptHan    2    0[COMMON] PTR FTN()void 
  5826 ;;		 -> EUSART_DefaultErrorHandler(1), 
  5827 ;; Auto vars:     Size  Location     Type
  5828 ;;		None
  5829 ;; Return value:  Size  Location     Type
  5830 ;;                  1    wreg      void 
  5831 ;; Registers used:
  5832 ;;		wreg
  5833 ;; Tracked objects:
  5834 ;;		On entry : 0/0
  5835 ;;		On exit  : 0/0
  5836 ;;		Unchanged: 0/0
  5837 ;; Data sizes:     COMMON   BANK0   BANK1   BANK2   BANK3   BANK4   BANK5   BANK6   BANK7   BANK8   BANK9  BANK10  BANK1
      +1  BANK12
  5838 ;;      Params:         2       0       0       0       0       0       0       0       0       0       0       0       
      +0       0
  5839 ;;      Locals:         0       0       0       0       0       0       0       0       0       0       0       0       
      +0       0
  5840 ;;      Temps:          0       0       0       0       0       0       0       0       0       0       0       0       
      +0       0
  5841 ;;      Totals:         2       0       0       0       0       0       0       0       0       0       0       0       
      +0       0
  5842 ;;Total ram usage:        2 bytes
  5843 ;; Hardware stack levels used:    1
  5844 ;; This function calls:
  5845 ;;		Nothing
  5846 ;; This function is called by:
  5847 ;;		_EUSART_Initialize
  5848 ;; This function uses a non-reentrant model
  5849 ;;
  5850                           
  5851                           
  5852                           ;psect for function _EUSART_SetErrorHandler
  5853  0E9B                     _EUSART_SetErrorHandler:
  5854  0E9B                     l1673:	
  5855                           ;incstack = 0
  5856                           ; Regs used in _EUSART_SetErrorHandler: [wreg]
  5857                           
  5858                           
  5859                           ;mcc_generated_files/eusart.c: 166:     EUSART_ErrorHandler = interruptHandler;
  5860  0E9B  0871               	movf	EUSART_SetErrorHandler@interruptHandler+1,w
  5861  0E9C  0021               	movlb	1	; select bank1
  5862  0E9D  00A1               	movwf	(_EUSART_ErrorHandler+1)^(0+128)
  5863  0E9E  0870               	movf	EUSART_SetErrorHandler@interruptHandler,w
  5864  0E9F  00A0               	movwf	_EUSART_ErrorHandler^(0+128)
  5865  0EA0                     l212:
  5866  0EA0  0008               	return
  5867  0EA1                     __end_of_EUSART_SetErrorHandler:
  5868  007E                     btemp	set	126	;btemp
  5869  007E                     wtemp0	set	126
  5870                           
  5871                           	psect	idloc
  5872                           
  5873                           ;Config register IDLOC0 @ 0x8000
  5874                           ;	unspecified, using default values
  5875  8000                     	org	32768
  5876  8000  3FFF               	dw	16383
  5877                           
  5878                           ;Config register IDLOC1 @ 0x8001
  5879                           ;	unspecified, using default values
  5880  8001                     	org	32769
  5881  8001  3FFF               	dw	16383
  5882                           
  5883                           ;Config register IDLOC2 @ 0x8002
  5884                           ;	unspecified, using default values
  5885  8002                     	org	32770
  5886  8002  3FFF               	dw	16383
  5887                           
  5888                           ;Config register IDLOC3 @ 0x8003
  5889                           ;	unspecified, using default values
  5890  8003                     	org	32771
  5891  8003  3FFF               	dw	16383
  5892                           
  5893                           	psect	config
  5894                           
  5895                           ;Config register CONFIG1 @ 0x8007
  5896                           ;	Oscillator Selection
  5897                           ;	FOSC = INTOSC, INTOSC oscillator: I/O function on CLKIN pin
  5898                           ;	Watchdog Timer Enable
  5899                           ;	WDTE = OFF, WDT disabled
  5900                           ;	Power-up Timer Enable
  5901                           ;	PWRTE = OFF, PWRT disabled
  5902                           ;	MCLR Pin Function Select
  5903                           ;	MCLRE = ON, MCLR/VPP pin function is MCLR
  5904                           ;	Flash Program Memory Code Protection
  5905                           ;	CP = OFF, Program memory code protection is disabled
  5906                           ;	Data Memory Code Protection
  5907                           ;	CPD = OFF, Data memory code protection is disabled
  5908                           ;	Brown-out Reset Enable
  5909                           ;	BOREN = ON, Brown-out Reset enabled
  5910                           ;	Clock Out Enable
  5911                           ;	CLKOUTEN = OFF, CLKOUT function is disabled. I/O or oscillator function on the CLKOUT 
      +                          pin
  5912                           ;	Internal/External Switchover
  5913                           ;	IESO = ON, Internal/External Switchover mode is enabled
  5914                           ;	Fail-Safe Clock Monitor Enable
  5915                           ;	FCMEN = ON, Fail-Safe Clock Monitor is enabled
  5916  8007                     	org	32775
  5917  8007  3FE4               	dw	16356
  5918                           
  5919                           ;Config register CONFIG2 @ 0x8008
  5920                           ;	Flash Memory Self-Write Protection
  5921                           ;	WRT = OFF, Write protection off
  5922                           ;	PLL Enable
  5923                           ;	PLLEN = OFF, 4x PLL disabled
  5924                           ;	Stack Overflow/Underflow Reset Enable
  5925                           ;	STVREN = ON, Stack Overflow or Underflow will cause a Reset
  5926                           ;	Brown-out Reset Voltage Selection
  5927                           ;	BORV = LO, Brown-out Reset Voltage (Vbor), low trip point selected.
  5928                           ;	Low-Voltage Programming Enable
  5929                           ;	LVP = ON, Low-voltage programming enabled
  5930  8008                     	org	32776
  5931  8008  3EFF               	dw	16127

Data Sizes:
    Strings     0
    Constant    4
    Data        0
    BSS         1
    Persistent  38
    Stack       0

Auto Spaces:
    Space          Size  Autos    Used
    COMMON           14     14      14
    BANK0            80     78      79
    BANK1            80      0       6
    BANK2            80      0       0
    BANK3            80      0       0
    BANK4            80      0       0
    BANK5            80      0       0
    BANK6            80      0       0
    BANK7            80      0       0
    BANK8            80      0       0
    BANK9            80      0       0
    BANK10           80      0       0
    BANK11           80      0       0
    BANK12           48      0       0

Pointer List with Targets:

    strlen@s	PTR const unsigned char  size(1) Largest target is 20
		 -> main@aNumber_str(BANK0[20]), 

    strlen@a	PTR const unsigned char  size(1) Largest target is 20
		 -> main@aNumber_str(BANK0[20]), 

    TX_Whole_String@input_string	PTR unsigned char  size(1) Largest target is 20
		 -> main@aNumber_str(BANK0[20]), 

    ftoa@res	PTR unsigned char  size(1) Largest target is 20
		 -> main@aNumber_str(BANK0[20]), 

    intToStr@str	PTR unsigned char  size(1) Largest target is 20
		 -> main@aNumber_str(BANK0[20]), 

    reverse@str	PTR unsigned char  size(1) Largest target is 20
		 -> main@aNumber_str(BANK0[20]), 

    EUSART_SetErrorHandler@interruptHandler	PTR FTN()void  size(2) Largest target is 1
		 -> EUSART_DefaultErrorHandler(), 

    EUSART_ErrorHandler	PTR FTN()void  size(2) Largest target is 1
		 -> Absolute function(), EUSART_DefaultErrorHandler(), 

    EUSART_SetOverrunErrorHandler@interruptHandler	PTR FTN()void  size(2) Largest target is 1
		 -> EUSART_DefaultOverrunErrorHandler(), 

    EUSART_OverrunErrorHandler	PTR FTN()void  size(2) Largest target is 1
		 -> Absolute function(), EUSART_DefaultOverrunErrorHandler(), 

    EUSART_SetFramingErrorHandler@interruptHandler	PTR FTN()void  size(2) Largest target is 1
		 -> EUSART_DefaultFramingErrorHandler(), 

    EUSART_FramingErrorHandler	PTR FTN()void  size(2) Largest target is 1
		 -> Absolute function(), EUSART_DefaultFramingErrorHandler(), 


Critical Paths under _main in COMMON

    _ftoa->___xxtofl
    _intToStr->___fltol
    _intToStr->_reverse
    __power->___xxtofl
    ___flsub->___xxtofl
    _TX_Whole_String->_strlen
    _TX_Command->_EUSART_Write
    _TX_Command->_EUSART_is_tx_ready
    _EUSART_Initialize->_EUSART_SetErrorHandler
    _EUSART_Initialize->_EUSART_SetFramingErrorHandler
    _EUSART_Initialize->_EUSART_SetOverrunErrorHandler

Critical Paths under _main in BANK0

    _main->_ftoa
    _ftoa->___flmul
    ___flsub->___fladd
    ___flmul->__power

Critical Paths under _main in BANK1

    None.

Critical Paths under _main in BANK2

    None.

Critical Paths under _main in BANK3

    None.

Critical Paths under _main in BANK4

    None.

Critical Paths under _main in BANK5

    None.

Critical Paths under _main in BANK6

    None.

Critical Paths under _main in BANK7

    None.

Critical Paths under _main in BANK8

    None.

Critical Paths under _main in BANK9

    None.

Critical Paths under _main in BANK10

    None.

Critical Paths under _main in BANK11

    None.

Critical Paths under _main in BANK12

    None.

Call Graph Tables:

 ---------------------------------------------------------------------------------
 (Depth) Function   	        Calls       Base Space   Used Autos Params    Refs
 ---------------------------------------------------------------------------------
 (0) _main                                                27    27      0    9790
                                             52 BANK0     26    26      0
                  _SYSTEM_Initialize
                    _TX_Whole_String
                               _ftoa
 ---------------------------------------------------------------------------------
 (1) _ftoa                                                17    10      7    9076
                                             35 BANK0     17    10      7
                            ___flmul
                            ___flsub
                            ___fltol
                           ___xxtofl
                             __power
                           _intToStr
 ---------------------------------------------------------------------------------
 (2) _intToStr                                             9     4      5    2046
                                             11 COMMON     2     2      0
                                              0 BANK0      7     2      5
                            ___awdiv
                            ___awmod
                            ___fltol (ARG)
                            _reverse
 ---------------------------------------------------------------------------------
 (3) _reverse                                             11     9      2     378
                                              0 COMMON    11     9      2
 ---------------------------------------------------------------------------------
 (3) ___awmod                                              7     3      4     448
                                              0 COMMON     7     3      4
 ---------------------------------------------------------------------------------
 (3) ___awdiv                                              9     5      4     452
                                              0 COMMON     9     5      4
 ---------------------------------------------------------------------------------
 (2) __power                                               9     5      4     885
                                              0 BANK0      9     5      4
                             ___bmul
                           ___xxtofl
 ---------------------------------------------------------------------------------
 (3) ___xxtofl                                            14    10      4     474
                                              0 COMMON    14    10      4
 ---------------------------------------------------------------------------------
 (3) ___bmul                                               4     3      1     168
                                              0 COMMON     4     3      1
 ---------------------------------------------------------------------------------
 (2) ___fltol                                             11     7      4     381
                                              0 COMMON    11     7      4
 ---------------------------------------------------------------------------------
 (2) ___flsub                                              8     0      8    2333
                                              8 BANK0      8     0      8
                            ___fladd
                           ___xxtofl (ARG)
 ---------------------------------------------------------------------------------
 (3) ___fladd                                             20    12      8    2136
                                              0 COMMON    12     4      8
                                              0 BANK0      8     8      0
 ---------------------------------------------------------------------------------
 (2) ___flmul                                             26    18      8    2417
                                              9 BANK0     26    18      8
                          __Umul8_16
                             __power (ARG)
 ---------------------------------------------------------------------------------
 (3) __Umul8_16                                            9     7      2     799
                                              0 COMMON     9     7      2
 ---------------------------------------------------------------------------------
 (1) _TX_Whole_String                                      4     4      0     337
                                              5 COMMON     4     4      0
                         _TX_Command
                             _strlen
 ---------------------------------------------------------------------------------
 (2) _strlen                                               5     3      2     123
                                              0 COMMON     5     3      2
 ---------------------------------------------------------------------------------
 (2) _TX_Command                                           1     1      0      68
                                              1 COMMON     1     1      0
                       _EUSART_Write
                 _EUSART_is_tx_ready
 ---------------------------------------------------------------------------------
 (3) _EUSART_is_tx_ready                                   1     1      0      24
                                              0 COMMON     1     1      0
 ---------------------------------------------------------------------------------
 (3) _EUSART_Write                                         1     1      0      22
                                              0 COMMON     1     1      0
 ---------------------------------------------------------------------------------
 (1) _SYSTEM_Initialize                                    0     0      0     294
                  _EUSART_Initialize
              _OSCILLATOR_Initialize
             _PIN_MANAGER_Initialize
                    _SPI1_Initialize
                     _WDT_Initialize
 ---------------------------------------------------------------------------------
 (2) _WDT_Initialize                                       0     0      0       0
 ---------------------------------------------------------------------------------
 (2) _SPI1_Initialize                                      0     0      0       0
 ---------------------------------------------------------------------------------
 (2) _PIN_MANAGER_Initialize                               0     0      0       0
 ---------------------------------------------------------------------------------
 (2) _OSCILLATOR_Initialize                                0     0      0       0
 ---------------------------------------------------------------------------------
 (2) _EUSART_Initialize                                    0     0      0     294
             _EUSART_SetErrorHandler
      _EUSART_SetFramingErrorHandler
      _EUSART_SetOverrunErrorHandler
 ---------------------------------------------------------------------------------
 (3) _EUSART_SetOverrunErrorHandler                        2     0      2      98
                                              0 COMMON     2     0      2
 ---------------------------------------------------------------------------------
 (3) _EUSART_SetFramingErrorHandler                        2     0      2      98
                                              0 COMMON     2     0      2
 ---------------------------------------------------------------------------------
 (3) _EUSART_SetErrorHandler                               2     0      2      98
                                              0 COMMON     2     0      2
 ---------------------------------------------------------------------------------
 Estimated maximum stack depth 3
 ---------------------------------------------------------------------------------

 Call Graph Graphs:

 _main (ROOT)
   _SYSTEM_Initialize
     _EUSART_Initialize
       _EUSART_SetErrorHandler
       _EUSART_SetFramingErrorHandler
       _EUSART_SetOverrunErrorHandler
     _OSCILLATOR_Initialize
     _PIN_MANAGER_Initialize
     _SPI1_Initialize
     _WDT_Initialize
   _TX_Whole_String
     _TX_Command
       _EUSART_Write
       _EUSART_is_tx_ready
     _strlen
   _ftoa
     ___flmul
       __Umul8_16
       __power (ARG)
         ___bmul
         ___xxtofl
     ___flsub
       ___fladd
       ___xxtofl (ARG)
     ___fltol
     ___xxtofl
     __power
       ___bmul
       ___xxtofl
     _intToStr
       ___awdiv
       ___awmod
       ___fltol (ARG)
       _reverse (ARG)

 Address spaces:
Name               Size   Autos  Total    Cost      Usage
BIGRAM             3F0      0       0       0        0.0%
EEDATA             100      0       0       0        0.0%
NULL                 0      0       0       0        0.0%
CODE                 0      0       0       0        0.0%
BITCOMMON            E      0       0       1        0.0%
BITSFR0              0      0       0       1        0.0%
SFR0                 0      0       0       1        0.0%
COMMON               E      E       E       2      100.0%
BITSFR1              0      0       0       2        0.0%
SFR1                 0      0       0       2        0.0%
BITSFR2              0      0       0       3        0.0%
SFR2                 0      0       0       3        0.0%
STACK                0      0       0       3        0.0%
BITBANK0            50      0       0       4        0.0%
BITSFR3              0      0       0       4        0.0%
SFR3                 0      0       0       4        0.0%
BANK0               50     4E      4F       5       98.8%
BITSFR4              0      0       0       5        0.0%
SFR4                 0      0       0       5        0.0%
BITBANK1            50      0       0       6        0.0%
BITSFR5              0      0       0       6        0.0%
SFR5                 0      0       0       6        0.0%
BANK1               50      0       6       7        7.5%
BITSFR6              0      0       0       7        0.0%
SFR6                 0      0       0       7        0.0%
BITBANK2            50      0       0       8        0.0%
BITSFR7              0      0       0       8        0.0%
SFR7                 0      0       0       8        0.0%
BANK2               50      0       0       9        0.0%
BITSFR8              0      0       0       9        0.0%
SFR8                 0      0       0       9        0.0%
BITBANK3            50      0       0      10        0.0%
BITSFR9              0      0       0      10        0.0%
SFR9                 0      0       0      10        0.0%
BANK3               50      0       0      11        0.0%
BITSFR10             0      0       0      11        0.0%
SFR10                0      0       0      11        0.0%
BITBANK4            50      0       0      12        0.0%
BITSFR11             0      0       0      12        0.0%
SFR11                0      0       0      12        0.0%
BANK4               50      0       0      13        0.0%
BITSFR12             0      0       0      13        0.0%
SFR12                0      0       0      13        0.0%
BITBANK5            50      0       0      14        0.0%
BITSFR13             0      0       0      14        0.0%
SFR13                0      0       0      14        0.0%
BANK5               50      0       0      15        0.0%
BITSFR14             0      0       0      15        0.0%
SFR14                0      0       0      15        0.0%
BITBANK6            50      0       0      16        0.0%
BITSFR15             0      0       0      16        0.0%
SFR15                0      0       0      16        0.0%
BANK6               50      0       0      17        0.0%
BITSFR16             0      0       0      17        0.0%
SFR16                0      0       0      17        0.0%
BITBANK7            50      0       0      18        0.0%
BITSFR17             0      0       0      18        0.0%
SFR17                0      0       0      18        0.0%
BANK7               50      0       0      19        0.0%
BITSFR18             0      0       0      19        0.0%
SFR18                0      0       0      19        0.0%
BITSFR19             0      0       0      20        0.0%
SFR19                0      0       0      20        0.0%
ABS                  0      0      63      20        0.0%
BITBANK8            50      0       0      21        0.0%
BITSFR20             0      0       0      21        0.0%
SFR20                0      0       0      21        0.0%
BANK8               50      0       0      22        0.0%
BITSFR21             0      0       0      22        0.0%
SFR21                0      0       0      22        0.0%
BITBANK9            50      0       0      23        0.0%
BITSFR22             0      0       0      23        0.0%
SFR22                0      0       0      23        0.0%
BANK9               50      0       0      24        0.0%
BITSFR23             0      0       0      24        0.0%
SFR23                0      0       0      24        0.0%
BITBANK10           50      0       0      25        0.0%
BITSFR24             0      0       0      25        0.0%
SFR24                0      0       0      25        0.0%
BANK10              50      0       0      26        0.0%
BITSFR25             0      0       0      26        0.0%
SFR25                0      0       0      26        0.0%
BITBANK11           50      0       0      27        0.0%
BITSFR26             0      0       0      27        0.0%
SFR26                0      0       0      27        0.0%
BANK11              50      0       0      28        0.0%
BITSFR27             0      0       0      28        0.0%
SFR27                0      0       0      28        0.0%
BITBANK12           30      0       0      29        0.0%
BITSFR28             0      0       0      29        0.0%
SFR28                0      0       0      29        0.0%
BANK12              30      0       0      30        0.0%
BITSFR29             0      0       0      30        0.0%
SFR29                0      0       0      30        0.0%
BITSFR30             0      0       0      31        0.0%
SFR30                0      0       0      31        0.0%
DATA                 0      0      63      31        0.0%
BITSFR31             0      0       0      32        0.0%
SFR31                0      0       0      32        0.0%


Microchip Technology PIC Macro Assembler V2.31 build 20201012212115 
Symbol Table                                                                                   Mon Jul 10 19:22:05 2023

                               ___bmul@product 0072                                             l21 0EEF  
                                           l24 000B                                             l27 0E9A  
                                           l60 0F38                                             l84 0EC2  
                                 ___awdiv@sign 0076                            __Umul8_16@word_mpld 0076  
                                          l212 0EA0                                            l206 0EA6  
                                          l209 0EAC                                            l172 0EDF  
                                          l236 0085                                            l245 01A0  
                                          l167 0F7B                                            l191 0EAE  
                                          l265 0FCA                                            l249 02B8  
                                          l194 0EB6                                            l451 0F04  
                                          l275 0FFF                                            l269 0ED0  
                                          l730 0465                                            l626 01FF  
                                          l619 0214                                            l732 0440  
                                          l629 0214                                            l822 07FA  
                                          l726 03C3                                            l751 051C  
                                          l591 00D8                                            l760 0576  
                                          l841 0F8E                                            l834 07EE  
                                          l578 0137                                            l843 0F9E  
                                          l747 04FA                                            l739 05A3  
                                          l828 0776                                            l772 0F58  
                                          l757 053E                                            l768 0599  
                                          l880 033C                                            l872 0316  
                                          l769 05A3                                            l866 02DB  
                                          l868 0364                                            l887 0F1D  
                                          l879 0330                 ?_EUSART_SetFramingErrorHandler 0070  
                                 ___awmod@sign 0076                                            wreg 0009  
                                 ___flmul@aexp 003B                                   ___flmul@bexp 003C  
                                 ___flmul@sign 0036                                   ___flmul@temp 0041  
                                 ___flmul@prod 003D                                   ___fltol@exp1 007A  
                                         l2001 0F95                                           l2003 0F9A  
                                         l2011 02C3                                           l2021 02F1  
                                         l2013 02D3                                           l2101 013C  
                                         l2031 031D                                           l2023 02FC  
                                         l2015 02E3                                           l2007 02BA  
                                         l2111 0179                                           l2103 0153  
                                         l2201 05B8                                           l2041 0352  
                                         l2033 0326                                           l2025 0303  
                                         l2009 02BF                                           l2113 017D  
                                         l2105 0157                                           l2051 0EB7  
                                         l2211 05D4                                           l2203 05BD  
                                         l2043 0357                                           l2035 032A  
                                         l2027 0307                                           l2019 02EC  
                                         l2131 0FE5                                           l2123 0FCB  
                                         l2115 018B                                           l2107 0167  
                                         l2061 0F25                                           l2053 0EBE  
                                         l2141 0F17                                           l2301 0780  
                                         l2221 05E7                                           l2213 05D8  
                                         l2205 05C5                                           l2045 035B  
                                         l2037 0334                                           l2029 030F  
                                         l2125 0FCF                                           l2117 0194  
                                         l2109 016E                                           l2071 0F31  
                                         l2063 0F27                                           l2055 0EC0  
                                         l2135 0F06                                           l2311 07B5  
                                         l2303 0788                                           l2231 0603  
                                         l2223 05EF                                           l2215 05DC  
                                         l2207 05C7                                           l2151 01AC  
                                         l2047 035C                                           l2039 033E  
                                         l2127 0FDB                                           l2119 019C  
                                         l2081 0005                                           l2073 0F32  
                                         l2065 0F29                                           l2057 0F1E  
                                         l2145 0EC4                                           l2137 0F0B  
                                         l2321 07E5                                           l2313 07BF  
                                         l2305 078C                                           l2241 0640  
                                         l2225 05F1                                           l2217 05DD  
                                         l2209 05CF                                           l2161 01D1  
                                         l2129 0FDF                                           l2091 0F64  
                                         l2083 0008                                           l2075 0F33  
                                         l2067 0F2D                                           l2059 0F22  
                                         l2331 0EE0                                           l2147 0ECC  
                                         l2139 0F0F                                           l2323 07E9  
                                         l2315 07CD                                           l2307 07A4  
                                         l2251 0688                                           l2243 064D  
                                         l2235 060C                                           l2227 05F9  
                                         l2219 05E2                                           l2171 01DF  
                                         l2163 01D3                                           l2155 01B5  
                                         l2093 0F6B                                           l2085 0009  
                                         l2077 0F35                                           l2069 0F2F  
                                         l2325 07EA                                           l2317 07D6  
                                         l2309 07A8                                           l2261 06C4  
                                         l2253 0695                                           l2245 0667  
                                         l2237 0619                                           l2229 05FE  
                                         l2181 0204                                           l2165 01D7  
                                         l2173 01EF                                           l2157 01C8  
                                         l2149 01A1                                           l1701 0077  
                                         l2341 0273                                           l2333 0215  
                                         l2095 0F72                                           l2079 0F37  
                                         l2087 0E97                                           l2351 0FB4  
                                         l2327 07F2                                           l2319 07D8  
                                         l2271 0715                                           l2263 06CB  
                                         l2255 069C                                           l2247 0674  
                                         l2239 0626                                           l2191 05A4  
                                         l2183 0209                                           l2159 01C9  
                                         l1711 0EFC                                           l1703 0EF1  
                                         l2343 029B                                           l2335 0250  
                                         l2097 0F79                                           l2089 0F59  
                                         l2353 0FBC                                           l2345 0FA0  
                                         l2281 074A                                           l2273 072C  
                                         l2265 06DF                                           l2257 06A9  
                                         l2249 0681                                           l2193 05AA  
                                         l1801 036B                                           l2185 0F39  
                                         l1713 0F03                                           l1705 0EF2  
                                         l1721 00DE                                           l2337 0263  
                                         l2355 0FC0                                           l2347 0FA8  
                                         l2291 075B                                           l2283 074B  
                                         l2275 0733                                           l2267 06EC  
                                         l2259 06B0                                           l2195 05AE  
                                         l1811 037E                                           l1803 036F  
                                         l2187 0F3C                                           l2179 01F6  
                                         l1707 0EF6                                           l1731 00F2  
                                         l1723 00E3                                           l2099 0138  
                                         l2339 0269                                           l2371 000C  
                                         l2357 0FC6                                           l2349 0FAA  
                                         l2293 075F                                           l2285 0752  
                                         l2277 073F                                           l2269 0700  
                                         l2197 05B2                                           l1821 0396  
                                         l1813 0386                                           l1805 0373  
                                         l1709 0EFA                                           l1741 0106  
                                         l1733 00F4                                           l1725 00E5  
                                         l1717 00D9                                           l2381 0031  
                                         l2373 000F                                           l1671 0EA7  
                                         l2295 0773                                           l2279 0746  
                                         l2287 0756                                           l2199 05B3  
                                         l1911 048E                                           l1903 0477  
                                         l1831 03A6                                           l1823 039C  
                                         l1815 0387                                           l1807 0374  
                                         l1751 0123                                           l1743 010A  
                                         l1735 00FA                                           l1727 00E9  
                                         l1719 00DA                                           l2375 0011  
                                         l1673 0E9B                                           l1681 0EDC  
                                         l2289 075A                                           l1913 0490  
                                         l1905 047F                                           l1921 04A3  
                                         l1833 03AB                                           l1841 03BB  
                                         l1825 039D                                           l1809 0379  
                                         l1817 0389                                           l1745 0119  
                                         l1737 00FD                                           l1753 0129  
                                         l1729 00EE                                           l1761 0086  
                                         l2377 001A                                           l1683 0EDE  
                                         l1675 0ED1                                           l2299 077B  
                                         l1923 04BA                                           l1931 04F2  
                                         l1915 0494                                           l1907 0483  
                                         l1851 03D9                                           l1843 03C9  
                                         l1835 03B0                                           l1827 03A1  
                                         l1819 0391                                           l1755 012E  
                                         l1747 011D                                           l1739 0102  
                                         l1771 0096                                           l1763 0087  
                                         l1691 0042                                           l2379 002D  
                                         l1669 0EA1                                           l1677 0ED2  
                                         l1941 0517                                           l1933 0502  
                                         l1925 04DE                                           l1917 0495  
                                         l1909 0487                                           l1861 03ED  
                                         l1853 03DD                                           l1845 03CD  
                                         l1837 03B8                                           l1829 03A5  
                                         l1757 0133                                           l1749 011E  
                                         l1781 00AD                                           l1773 009B  
                                         l1765 008B                                           l1693 0044  
                                         l1687 0EAE                                           l1679 0ED7  
                                         l1951 052A                                           l1943 051B  
                                         l1935 0507                                           l1927 04E4  
                                         l1919 049E                                           l1871 0401  
                                         l1863 03F1                                           l1855 03E1  
                                         l1847 03D1                                           l1839 03B9  
                                         l1783 00B1                                           l1775 00A1  
                                         l1791 00CA                                           l1767 0090  
                                         l1695 004B                                           l1689 0EB3  
                                         l1961 053B                                           l1945 0520  
                                         l1953 052C                                           l1929 04E9  
                                         l1881 0425                                           l1873 0405  
                                         l1865 03F5                                           l1857 03E5  
                                         l1849 03D5                                           l1793 00CF  
                                         l1785 00BB                                           l1777 00A4  
                                         l1769 0092                                           l1697 006F  
                                         l1971 0554                                           l1947 0523  
                                         l1939 0510                                           l1955 0530  
                                         l1891 0452                                           l1883 0444  
                                         l1875 0409                                           l1867 03F9  
                                         l1859 03E9                                           l1795 00D4  
                                         l1787 00BF                                           l1779 00A9  
                                         l1699 0073                                           l1981 058D  
                                         l1973 0572                                           l1965 0543  
                                         l1957 0531                                           l1949 0525  
                                         l1893 045B                                           l1885 044B  
                                         l1869 03FD                                           l1877 040D  
                                         l1789 00C4                                           l1991 05A2  
                                         l1983 058E                                           l1975 057B  
                                         l1967 0548                                           l1959 0535  
                                         l1887 044D                                           l1895 045F  
                                         l1879 040E                                           l1799 0365  
                                         l1993 0F7D                                           l1985 0592  
                                         l1977 0580                                           l1969 0550  
                                         l1897 0469                                           l1889 0451  
                                         l1995 0F7F                                           l1987 0594  
                                         l1979 0588                                           l1899 046E  
                                         l1997 0F86                                           l1989 059E  
                                         l1999 0F8A                                           u2000 057B  
                                         u2001 057A                                           u2010 0580  
                                         u2011 057F                                           u2020 058D  
                                         u2100 02E3                                           u2021 058C  
                                         u2101 02E2                                           u2030 0592  
                                         u2031 0591                                           u2040 05A2  
                                         u2200 0357                                           u2120 0302  
                                         u1400 0085                                           u2041 05A1  
                                         u2201 0356                                           u2121 0301  
                                         u1401 0084                                           u2050 0F8A  
                                         u1410 0EF6                                           u2210 035B  
                                         u2051 0F89                                           u1411 0EF5  
                                         u2211 035A                                           u2115 02F6  
                                         u2300 01DE                                           u1420 0F03  
                                         u2140 031C                                           u2220 016D  
                                         u2301 01DD                                           u1421 0F02  
                                         u2141 031B                                           u1405 0081  
                                         u2221 016C                                           _LATA 010C  
                                         u2070 0F9A                                           u1510 0129  
                                         u1430 00DE                                           u2230 018B  
                                         _LATB 010D                                           u2071 0F99  
                                         u2135 0310                                           u1511 0128  
                                         u1431 00DD                                           u2231 018A  
                                         _LATC 010E                                           u2400 05DC  
                                         u2320 01EE                                           u2160 032A  
                                         u2080 02BF                                           u2240 0FE5  
                                         u1520 012E                                           u1440 00E9  
                                         u1600 00CA                                           u2065 0F8F  
                                         u2401 05DB                                           u2321 01ED  
                                         u2161 0329                                           u2081 02BE  
                                         u2241 0FE4                                           u1521 012D  
                                         u1505 011F                                           u1441 00E8  
                                         u1601 00C9                                           u1370 0ED7  
                                         u2250 0F17                                           u2410 05E2  
                                         u2330 01F5                                           u2170 0330  
                                         u2090 02C3                                           u1450 00FA  
                                         u1610 00CF                                           u1530 008B  
                                         u1371 0ED6                                           u2251 0F16  
                                         u2411 05E1                                           u2331 01F4  
                                         u2315 01E0                                           u2171 032F  
                                         u2155 0320                                           u2091 02C2  
                                         u1451 00F9                                           u1611 00CE  
                                         u1531 008A                                           u2235 0187  
                                         u1380 0EDC                                           u2260 0ECC  
                                         u2420 05E7                                           u1700 03CD  
                                         u1620 0373                                           u2180 0334  
                                         u1540 0096                                           u1381 0EDB  
                                         u2261 0ECB                                           u2421 05E6  
                                         u1701 03CC                                           u1621 0372  
                                         u2181 0333                                           u1541 0095  
                                         u1390 0EB3                                           u2510 074A  
                                         u2430 05FE                                           u1710 0425  
                                         u1630 0379                                           u2350 0204  
                                         u2270 01AC                                           u2190 0348  
                                         u1470 010A                                           u1550 00A1  
                                         u1391 0EB2                                           u2511 0749  
                                         u2431 05FD                                           u1711 0424  
                                         u1631 0378                                           u2351 0203  
                                         u2271 01AB                                           u1471 0109  
                                         u1551 00A0                                           u2600 07B5  
                                         u2440 0603                                           u1800 0483  
                                         u1720 042E                                           u1640 037E  
                                         u2360 0209                                           u2280 01C2  
                                         u2601 07B4                                           u2505 0740  
                                         u2441 0602                                           u1801 0482  
                                         u1721 042C                                           u1641 037D  
                                         u2361 0208                                           u2345 01F7  
                                         u1465 00FE                                           u2610 07CD  
                                         u2530 075A                                           u2370 05B2  
                                         u1810 0487                                           u1730 042F  
                                         u1650 039C                                           u2290 01D7  
                                         u1490 0119                                           u1570 00B1  
                                         u2611 07CC                                           u2531 0759  
                                         u2371 05B1                                           u1811 0486  
                                         u1715 0421                                           u1651 039B  
                                         u2291 01D6                                           u2195 0344  
                                         u1491 0118                                           u1571 00B0  
                                         u2620 07E9                                           u2540 075F  
                                         u2380 05B8                                           u1900 0520  
                                         u1820 0494                                           u1740 0444  
                                         u1660 03A5                                           u1580 00BB  
                                         u2621 07E8                                           u2605 07B1  
                                         u2541 075E                                           u2525 074C  
                                         u2381 05B7                                           u1901 051F  
                                         u1821 0493                                           u1741 0443  
                                         u1661 03A4                                           u2285 01BE  
                                         u1485 010B                                           u1581 00BA  
                                         u1565 00A5                                           u2550 0773  
                                         u2470 070B                                           u2390 05BD  
                                         u1910 052A                                           u1750 0451  
                                         u1670 03AB                                           u2630 0269  
                                         u2615 07C9                                           u2551 0772  
                                         u2455 0682                                           u2391 05BC  
                                         u1911 0529                                           u1751 0450  
                                         u1671 03AA                                           u1495 0115  
                                         u2631 0268                                           u2640 0FC6  
                                         u2560 077A                                           u2480 0722  
                                         u1920 0530                                           u1840 04BA  
                                         u1680 03B0                                           u2641 0FC5  
                                         u2561 0779                                           u2465 06B1  
                                         u1921 052F                                           u1841 04B9  
                                         u1681 03AF                                           u1585 00B7  
                                         u2570 0780                                           u1930 0535  
                                         u1850 04E9                                           u1770 0465  
                                         u1690 03C9                                           u2571 077F  
                                         u2475 0707                                           u1931 0534  
                                         u1851 04E8                                           u1843 04B6  
                                         u1835 0498                                           u1771 0464  
                                         u1691 03C8                                           u1595 00C0  
                                         u2580 078C                                           u1940 053B  
                                         u1860 0502                                           u1780 0469  
                                         u2581 078B                                           u2485 071E  
                                         u1941 053A                                           u1861 0501  
                                         u1781 0468                                           u1765 0455  
                                         u2590 079A                                           u1950 0542  
                                         u1870 0507                                           u1790 046E  
                                         u2495 072D                                           u1951 0541  
                                         u1871 0506                                           u1791 046D  
                                         u1960 0548                                           u1961 0547  
                                         u1970 0554                                           u1890 051B  
                                         u2595 0796                                           u1971 0553  
                                         u1891 051A                                           u1980 0563  
                                         u1885 0511                                           u2677 0037  
                                         u1990 0572                                           u2687 0FB7  
                                         u1991 0571                                           u1985 055F  
                                         _WPUA 020C                                           _WPUB 020D  
                                         _WPUC 020E                                           _main 000C  
                                         _ftoa 0215                                           fsr1h 0007  
                                         indf1 0001                                           fsr1l 0006  
                TX_Whole_String@size_of_string 0076                                           btemp 007E  
                                         start 0002                              ___bmul@multiplier 0073  
                                   _TX_Command 0EC3                                _TX_Whole_String 0F9F  
                                ?_EUSART_Write 0070                 __size_of_OSCILLATOR_Initialize 0007  
                __end_of_OSCILLATOR_Initialize 000C                                  ___fltol@sign1 0079  
                              __end_of___fladd 05A4                                          ?_main 0070  
                                        ?_ftoa 0043                                __end_of___awdiv 0138  
                              __end_of___awmod 00D9                                __end_of___flmul 07FB  
                              __end_of___flsub 0F59                                __end_of___fltol 0215  
                              ___awdiv@divisor 0070                                ___awdiv@counter 0075  
                                        _RCREG 0199                                          _RCSTA 019D  
                                        _TRISA 008C                                          _TRISB 008D  
                                        _TRISC 008E                                          _TXREG 019A  
                                        _TXSTA 019E                                 _WDT_Initialize 0E97  
                                        ftoa@i 004E                                          ftoa@n 0043  
                              __end_of_reverse 0086                                          status 0003  
                                        wtemp0 007E                       __size_of_SPI1_Initialize 000C  
                              __initialization 07FB                    TX_Whole_String@input_string 0077  
                                 __end_of_main 0041                                   __end_of_ftoa 02B9  
                               ??_EUSART_Write 0070                                         ??_main 0054  
                                       ??_ftoa 004A                         __end_of_WDT_Initialize 0E9B  
            _EUSART_DefaultFramingErrorHandler 0000                     _EUSART_OverrunErrorHandler 00A2  
                             ___awdiv@dividend 0072                                         _ANSELA 018C  
                                       _ANSELB 018D                                         _ANSELC 018E  
                                       _BORCON 0116                     __end_of_EUSART_is_tx_ready 0EE0  
                                       _OSCCON 0099                                         _SPBRGH 019C  
                                       _SPBRGL 019B                                         _WDTCON 0097  
                             __end_of___xxtofl 0365                                    intToStr@str 0022  
                      __end_of_TX_Whole_String 0FCB                                         ___bmul 0EF0  
                                    ??___fladd 0020                               TX_Command@txData 0071  
                                    ??___awdiv 0074                                      ??___awmod 0074  
                                    ??___flmul 0031                                      ??___flsub 007E  
                                    ??___fltol 0074                                         __power 0FCB  
                                  ?_TX_Command 0070                               __end_of_intToStr 01A1  
                             ___awdiv@quotient 0077                                ___awmod@divisor 0070  
                              ___awmod@counter 0075                                         _strlen 0F05  
                           __size_of__Umul8_16 0023                                ?_WDT_Initialize 0070  
                                    ??_reverse 0072                                   ___xxtofl@arg 007A  
                                 ___xxtofl@exp 0079                              _SYSTEM_Initialize 0EE0  
                                 ___xxtofl@val 0070                        __end_of__initialization 07FD  
                           ?_SYSTEM_Initialize 0070                                     ___fltol@f1 0070  
                          ___bmul@multiplicand 0070                                 __pcstackCOMMON 0070  
                              __power@base_num 0020                            ??_SYSTEM_Initialize 0072  
                            ??_SPI1_Initialize 0070                             _spi1_configuration 1000  
                               _OPTION_REGbits 0095                ??_EUSART_SetOverrunErrorHandler 0072  
                    __end_of_SYSTEM_Initialize 0EF0                                     __pbssBANK0 006E  
                         __end_of_EUSART_Write 0EB7                            __size_of_TX_Command 000E  
                            __end_of__Umul8_16 0F9F                               ?_TX_Whole_String 0070  
                                   __pmaintext 000C                                        ?___bmul 0070  
                                      ?__power 0020                                        _BAUDCON 019F  
                                      _APFCON0 011D                                        _APFCON1 011E  
                                      ?_strlen 0070                                      ?___xxtofl 0070  
                                      _OSCTUNE 0098                                        _SSP1ADD 0212  
                                      _SSP1BUF 0211                       ??_EUSART_SetErrorHandler 0072  
                                    ?_intToStr 0020                                main@aNumber_int 006A  
                              main@aNumber_str 0056                                __size_of___bmul 0015  
                                      ___fladd 0365                                        ___awdiv 00D9  
                                      ___awmod 0086                                        ___flmul 05A4  
                                      ___flsub 0F39                                        ___fltol 01A1  
                              __size_of__power 0035                                        __ptext1 0215  
                                      __ptext2 0138                                        __ptext3 0041  
                                      __ptext4 0086                                        __ptext5 00D9  
                                      __ptext6 0FCB                                        __ptext7 02B9  
                                      __ptext8 0EF0                                        __ptext9 01A1  
                              __size_of_strlen 0019                          _OSCILLATOR_Initialize 0005  
                                   ??___xxtofl 0074                               ___awmod@dividend 0072  
                     ??_PIN_MANAGER_Initialize 0070                                        _reverse 0041  
                   __size_of_SYSTEM_Initialize 0010                           end_of_initialization 07FD  
                                      ftoa@res 0047          __end_of_EUSART_SetOverrunErrorHandler 0EAD  
       __size_of_EUSART_SetOverrunErrorHandler 0006                  _EUSART_SetOverrunErrorHandler 0EA7  
                                   ??_intToStr 007B                                    reverse@temp 0075  
                            _EUSART_Initialize 0F59                             ?_EUSART_Initialize 0070  
                                    _RCSTAbits 019D                             _EUSART_is_tx_ready 0ED1  
                                 ??_TX_Command 0071                               TX_Whole_String@i 0078  
                                      strlen@a 0073                                        strlen@s 0074  
                          ??_EUSART_Initialize 0072                               ??_WDT_Initialize 0070  
                          ?_EUSART_is_tx_ready 0070                                    ___fladd@grs 007B  
                                ___xxtofl@sign 0078                                      _TRISBbits 008D  
                        __size_of_EUSART_Write 000A                __size_of_EUSART_SetErrorHandler 0006  
                                  ___flmul@grs 0037                      __end_of_EUSART_Initialize 0F7C  
                           __end_of_TX_Command 0ED1                                _SPI1_Initialize 0EB7  
                         ??_EUSART_is_tx_ready 0070                                      _TXSTAbits 019E  
                               __end_of___bmul 0F05                     _EUSART_DefaultErrorHandler 0000  
                                 _EUSART_Write 0EAD                                 __end_of__power 1000  
                       ?_OSCILLATOR_Initialize 0070                                 __end_of_strlen 0F1E  
                          start_initialization 07FB                __size_of_PIN_MANAGER_Initialize 001B  
                       _EUSART_is_tx_ready$355 0070                 ?_EUSART_SetOverrunErrorHandler 0070  
                   _EUSART_FramingErrorHandler 00A4                                       ??___bmul 0071  
                       _EUSART_SetErrorHandler 0E9B                                      __Umul8_16 0F7C  
                                     ??__power 0024                                       ??_strlen 0072  
                                    ___fladd@a 0074                                      ___fladd@b 0070  
                                    ___flmul@a 002D                                      ___flmul@b 0029  
                                    ___flsub@a 0028                                      ___flsub@b 002C  
                                    ___latbits 0002                                  __pcstackBANK0 0020  
                            __size_of___xxtofl 00AC                        __end_of_SPI1_Initialize 0EC3  
                               __power@exp_num 0022                     __size_of_EUSART_Initialize 0023  
                                    __pnvBANK1 00A0                              __size_of_intToStr 0069  
                       _PIN_MANAGER_Initialize 0F1E                                       ?___fladd 0070  
                                     ?___awdiv 0070                                       ?___awmod 0070  
                                     ?___flmul 0029                                       ?___flsub 0028  
                                     ?___fltol 0070                                     ?__Umul8_16 0070  
                     __size_of_TX_Whole_String 002C                                       ?_reverse 0070  
       EUSART_SetErrorHandler@interruptHandler 0070                                       _LATCbits 010E  
                            _eusartRxLastError 006E                                     reverse@len 0070  
                                   reverse@str 007A                                       _PIR1bits 0011  
              ??_EUSART_SetFramingErrorHandler 0072                                       _SSP1CON1 0215  
                                     _SSP1CON2 0216              _EUSART_DefaultOverrunErrorHandler 0000  
                                     _SSP1STAT 0214                               ?_SPI1_Initialize 0070  
                                    ftoa@fpart 0050                                      ftoa@ipart 004C  
                                    intToStr@d 0023                                      intToStr@i 0025  
                                    intToStr@x 0020                        ??_OSCILLATOR_Initialize 0070  
                                  ??__Umul8_16 0072                            _EUSART_ErrorHandler 00A0  
                             __size_of___fladd 023F                               __size_of___awdiv 005F  
                             __size_of___awmod 0053                               __size_of___flmul 0257  
                             __size_of___flsub 0020                               __size_of___fltol 0074  
                                     ___xxtofl 02B9                                  __power@result 0028  
                            ??_TX_Whole_String 0075                                       __ptext10 0F39  
                                     __ptext11 0365                                       __ptext20 0E97  
                                     __ptext12 05A4                                       __ptext21 0EB7  
                                     __ptext13 0F7C                                       __ptext22 0F1E  
                                     __ptext14 0F9F                                       __ptext23 0005  
                                     __ptext15 0F05                                       __ptext24 0F59  
                                     __ptext16 0EC3                                       __ptext25 0EA7  
                                     __ptext17 0ED1                                       __ptext26 0EA1  
                                     __ptext18 0EAD                                       __ptext27 0E9B  
                                     __ptext19 0EE0                                   _SSP1CON1bits 0215  
                             __size_of_reverse 0045                                       _intToStr 0138  
                                __size_of_main 0035                                  __size_of_ftoa 00A4  
                  __size_of_EUSART_is_tx_ready 000F                        ?_EUSART_SetErrorHandler 0070  
EUSART_SetOverrunErrorHandler@interruptHandler 0070          __end_of_EUSART_SetFramingErrorHandler 0EA7  
       __size_of_EUSART_SetFramingErrorHandler 0006                  _EUSART_SetFramingErrorHandler 0EA1  
                      __size_of_WDT_Initialize 0004                        ?_PIN_MANAGER_Initialize 0070  
               __end_of_EUSART_SetErrorHandler 0EA1                                       reverse@i 0076  
                                     reverse@j 0078                                 ftoa@afterpoint 0048  
EUSART_SetFramingErrorHandler@interruptHandler 0070                                  __pstringtext1 1000  
                       __Umul8_16@multiplicand 0070                                  ___fladd@signs 0078  
                           EUSART_Write@txData 0070                 __end_of_PIN_MANAGER_Initialize 0F39  
                                 ___fladd@aexp 0079                                   ___fladd@bexp 007A  
                         __Umul8_16@multiplier 0078                     __end_of_spi1_configuration 1004  
                            __Umul8_16@product 0074  
